
./test_sequence:	file format mach-o arm64

Disassembly of section __TEXT,__text:

0000000100001cb4 <__Z7test_eqRK8sequenceIiES2_>:
100001cb4: f6 57 bd a9 	stp	x22, x21, [sp, #-48]!
100001cb8: f4 4f 01 a9 	stp	x20, x19, [sp, #16]
100001cbc: fd 7b 02 a9 	stp	x29, x30, [sp, #32]
100001cc0: fd 83 00 91 	add	x29, sp, #32
100001cc4: f3 03 01 aa 	mov	x19, x1
100001cc8: f4 03 00 aa 	mov	x20, x0
100001ccc: 08 00 40 f9 	ldr	x8, [x0]
100001cd0: 08 01 40 f9 	ldr	x8, [x8]
100001cd4: 00 01 3f d6 	blr	x8
100001cd8: f5 03 00 aa 	mov	x21, x0
100001cdc: 68 02 40 f9 	ldr	x8, [x19]
100001ce0: 08 01 40 f9 	ldr	x8, [x8]
100001ce4: e0 03 13 aa 	mov	x0, x19
100001ce8: 00 01 3f d6 	blr	x8
100001cec: bf 02 00 f1 	cmp	x21, #0
100001cf0: e8 07 9f 1a 	cset	w8, ne
100001cf4: 1f 00 00 f1 	cmp	x0, #0
100001cf8: e9 07 9f 1a 	cset	w9, ne
100001cfc: bf 02 00 f1 	cmp	x21, #0
100001d00: 04 18 40 fa 	ccmp	x0, #0, #4, ne
100001d04: a0 01 00 54 	b.eq	0x100001d38 <__Z7test_eqRK8sequenceIiES2_+0x84>
100001d08: a8 02 40 b9 	ldr	w8, [x21]
100001d0c: 09 00 40 b9 	ldr	w9, [x0]
100001d10: 1f 01 09 6b 	cmp	w8, w9
100001d14: e1 01 00 54 	b.ne	0x100001d50 <__Z7test_eqRK8sequenceIiES2_+0x9c>
100001d18: 88 02 40 f9 	ldr	x8, [x20]
100001d1c: 08 05 40 f9 	ldr	x8, [x8, #8]
100001d20: e0 03 14 aa 	mov	x0, x20
100001d24: 00 01 3f d6 	blr	x8
100001d28: f5 03 00 aa 	mov	x21, x0
100001d2c: 68 02 40 f9 	ldr	x8, [x19]
100001d30: 08 05 40 f9 	ldr	x8, [x8, #8]
100001d34: ec ff ff 17 	b	0x100001ce4 <__Z7test_eqRK8sequenceIiES2_+0x30>
100001d38: c8 00 00 37 	tbnz	w8, #0, 0x100001d50 <__Z7test_eqRK8sequenceIiES2_+0x9c>
100001d3c: a9 00 00 35 	cbnz	w9, 0x100001d50 <__Z7test_eqRK8sequenceIiES2_+0x9c>
100001d40: fd 7b 42 a9 	ldp	x29, x30, [sp, #32]
100001d44: f4 4f 41 a9 	ldp	x20, x19, [sp, #16]
100001d48: f6 57 c3 a8 	ldp	x22, x21, [sp], #48
100001d4c: c0 03 5f d6 	ret
100001d50: 70 06 00 94 	bl	0x100003710 <__Z7test_eqRK8sequenceIiES2_.cold.1>

0000000100001d54 <__Z4initRK8sequenceINSt3__112basic_stringIcNS0_11char_traitsIcEENS0_9allocatorIcEEEEE>:
100001d54: c0 03 5f d6 	ret

0000000100001d58 <__Z13do_benchmark1v>:
100001d58: 00 e4 00 6f 	movi.2d	v0, #0000000000000000
100001d5c: 81 04 00 4f 	movi.4s	v1, #4
100001d60: 1f 20 03 d5 	nop
100001d64: 62 e0 00 9c 	ldr	q2, 0x100003970 <_strlen+0x100003970>
100001d68: 03 05 00 4f 	movi.4s	v3, #8
100001d6c: 08 40 99 52 	mov	w8, #51712
100001d70: 48 73 a7 72 	movk	w8, #15258, lsl #16
100001d74: 84 05 00 4f 	movi.4s	v4, #12
100001d78: 25 04 00 4f 	movi.4s	v5, #1
100001d7c: 06 06 00 4f 	movi.4s	v6, #16
100001d80: 07 e4 00 6f 	movi.2d	v7, #0000000000000000
100001d84: 10 e4 00 6f 	movi.2d	v16, #0000000000000000
100001d88: 11 e4 00 6f 	movi.2d	v17, #0000000000000000
100001d8c: 52 84 a1 4e 	add.4s	v18, v2, v1
100001d90: 53 84 a3 4e 	add.4s	v19, v2, v3
100001d94: 54 84 a4 4e 	add.4s	v20, v2, v4
100001d98: 55 1c 25 4e 	and.16b	v21, v2, v5
100001d9c: b5 9a a0 4e 	cmeq.4s	v21, v21, #0
100001da0: 56 9c a2 4e 	mul.4s	v22, v2, v2
100001da4: 52 9e b2 4e 	mul.4s	v18, v18, v18
100001da8: 73 9e b3 4e 	mul.4s	v19, v19, v19
100001dac: 94 9e b4 4e 	mul.4s	v20, v20, v20
100001db0: d6 1e 35 4e 	and.16b	v22, v22, v21
100001db4: 52 1e 35 4e 	and.16b	v18, v18, v21
100001db8: 73 1e 35 4e 	and.16b	v19, v19, v21
100001dbc: 94 1e 35 4e 	and.16b	v20, v20, v21
100001dc0: c0 86 a0 4e 	add.4s	v0, v22, v0
100001dc4: 47 86 a7 4e 	add.4s	v7, v18, v7
100001dc8: 70 86 b0 4e 	add.4s	v16, v19, v16
100001dcc: 91 86 b1 4e 	add.4s	v17, v20, v17
100001dd0: 42 84 a6 4e 	add.4s	v2, v2, v6
100001dd4: 08 41 00 71 	subs	w8, w8, #16
100001dd8: a1 fd ff 54 	b.ne	0x100001d8c <__Z13do_benchmark1v+0x34>
100001ddc: e0 84 a0 4e 	add.4s	v0, v7, v0
100001de0: 00 86 a0 4e 	add.4s	v0, v16, v0
100001de4: 20 86 a0 4e 	add.4s	v0, v17, v0
100001de8: 00 b8 b1 4e 	addv.4s	s0, v0
100001dec: 08 00 26 1e 	fmov	w8, s0
100001df0: 89 ec b4 52 	mov	w9, #-1486618624
100001df4: 00 01 09 0b 	add	w0, w8, w9
100001df8: c0 03 5f d6 	ret

0000000100001dfc <__Z10benchmark1v>:
100001dfc: ff 43 01 d1 	sub	sp, sp, #80
100001e00: f6 57 02 a9 	stp	x22, x21, [sp, #32]
100001e04: f4 4f 03 a9 	stp	x20, x19, [sp, #48]
100001e08: fd 7b 04 a9 	stp	x29, x30, [sp, #64]
100001e0c: fd 03 01 91 	add	x29, sp, #64
100001e10: 1f 20 03 d5 	nop
100001e14: e0 da 00 9c 	ldr	q0, 0x100003970 <_strlen+0x100003970>
100001e18: e0 03 80 3d 	str	q0, [sp]
100001e1c: 14 40 99 52 	mov	w20, #51712
100001e20: 54 73 a7 72 	movk	w20, #15258, lsl #16
100001e24: a3 06 00 94 	bl	0x1000038b0 <_strlen+0x1000038b0>
100001e28: f6 03 c0 3d 	ldr	q22, [sp]
100001e2c: 15 e4 00 6f 	movi.2d	v21, #0000000000000000
100001e30: f3 03 00 aa 	mov	x19, x0
100001e34: 80 04 00 4f 	movi.4s	v0, #4
100001e38: 01 05 00 4f 	movi.4s	v1, #8
100001e3c: 82 05 00 4f 	movi.4s	v2, #12
100001e40: 23 04 00 4f 	movi.4s	v3, #1
100001e44: 04 06 00 4f 	movi.4s	v4, #16
100001e48: 05 e4 00 6f 	movi.2d	v5, #0000000000000000
100001e4c: 06 e4 00 6f 	movi.2d	v6, #0000000000000000
100001e50: 07 e4 00 6f 	movi.2d	v7, #0000000000000000
100001e54: d0 86 a0 4e 	add.4s	v16, v22, v0
100001e58: d1 86 a1 4e 	add.4s	v17, v22, v1
100001e5c: d2 86 a2 4e 	add.4s	v18, v22, v2
100001e60: d3 1e 23 4e 	and.16b	v19, v22, v3
100001e64: 73 9a a0 4e 	cmeq.4s	v19, v19, #0
100001e68: d4 9e b6 4e 	mul.4s	v20, v22, v22
100001e6c: 10 9e b0 4e 	mul.4s	v16, v16, v16
100001e70: 31 9e b1 4e 	mul.4s	v17, v17, v17
100001e74: 52 9e b2 4e 	mul.4s	v18, v18, v18
100001e78: 94 1e 33 4e 	and.16b	v20, v20, v19
100001e7c: 10 1e 33 4e 	and.16b	v16, v16, v19
100001e80: 31 1e 33 4e 	and.16b	v17, v17, v19
100001e84: 52 1e 33 4e 	and.16b	v18, v18, v19
100001e88: 95 86 b5 4e 	add.4s	v21, v20, v21
100001e8c: 05 86 a5 4e 	add.4s	v5, v16, v5
100001e90: 26 86 a6 4e 	add.4s	v6, v17, v6
100001e94: 47 86 a7 4e 	add.4s	v7, v18, v7
100001e98: d6 86 a4 4e 	add.4s	v22, v22, v4
100001e9c: 94 42 00 71 	subs	w20, w20, #16
100001ea0: a1 fd ff 54 	b.ne	0x100001e54 <__Z10benchmark1v+0x58>
100001ea4: a0 84 b5 4e 	add.4s	v0, v5, v21
100001ea8: c0 84 a0 4e 	add.4s	v0, v6, v0
100001eac: e0 84 a0 4e 	add.4s	v0, v7, v0
100001eb0: 00 b8 b1 4e 	addv.4s	s0, v0
100001eb4: 08 00 26 1e 	fmov	w8, s0
100001eb8: 89 ec b4 52 	mov	w9, #-1486618624
100001ebc: 14 01 09 0b 	add	w20, w8, w9
100001ec0: 7c 06 00 94 	bl	0x1000038b0 <_strlen+0x1000038b0>
100001ec4: f5 03 00 aa 	mov	x21, x0
100001ec8: 1f 20 03 d5 	nop
100001ecc: 60 0d 01 58 	ldr	x0, 0x100004078 <_strlen+0x100004078>
100001ed0: e1 03 14 aa 	mov	x1, x20
100001ed4: 74 06 00 94 	bl	0x1000038a4 <_strlen+0x1000038a4>
100001ed8: 61 f7 00 30 	adr	x1, #7917
100001edc: 1f 20 03 d5 	nop
100001ee0: c2 01 80 52 	mov	w2, #14
100001ee4: eb 03 00 94 	bl	0x100002e90 <__ZNSt3__124__put_character_sequenceIcNS_11char_traitsIcEEEERNS_13basic_ostreamIT_T0_EES7_PKS4_m>
100001ee8: a8 02 13 cb 	sub	x8, x21, x19
100001eec: 00 01 62 9e 	scvtf	d0, x8
100001ef0: 08 90 d0 d2 	mov	x8, #145685290680320
100001ef4: c8 25 e8 f2 	movk	x8, #16686, lsl #48
100001ef8: 01 01 67 9e 	fmov	d1, x8
100001efc: 00 18 61 1e 	fdiv	d0, d0, d1
100001f00: 66 06 00 94 	bl	0x100003898 <_strlen+0x100003898>
100001f04: 81 f6 00 10 	adr	x1, #7888
100001f08: 1f 20 03 d5 	nop
100001f0c: 62 00 80 52 	mov	w2, #3
100001f10: e0 03 00 94 	bl	0x100002e90 <__ZNSt3__124__put_character_sequenceIcNS_11char_traitsIcEEEERNS_13basic_ostreamIT_T0_EES7_PKS4_m>
100001f14: f3 03 00 aa 	mov	x19, x0
100001f18: 08 00 40 f9 	ldr	x8, [x0]
100001f1c: 08 81 5e f8 	ldur	x8, [x8, #-24]
100001f20: 00 00 08 8b 	add	x0, x0, x8
100001f24: e8 63 00 91 	add	x8, sp, #24
100001f28: 44 06 00 94 	bl	0x100003838 <_strlen+0x100003838>
100001f2c: 1f 20 03 d5 	nop
100001f30: 81 0a 01 58 	ldr	x1, 0x100004080 <_strlen+0x100004080>
100001f34: e0 63 00 91 	add	x0, sp, #24
100001f38: 3d 06 00 94 	bl	0x10000382c <_strlen+0x10000382c>
100001f3c: 08 00 40 f9 	ldr	x8, [x0]
100001f40: 08 1d 40 f9 	ldr	x8, [x8, #56]
100001f44: 41 01 80 52 	mov	w1, #10
100001f48: 00 01 3f d6 	blr	x8
100001f4c: f4 03 00 aa 	mov	x20, x0
100001f50: e0 63 00 91 	add	x0, sp, #24
100001f54: 5a 06 00 94 	bl	0x1000038bc <_strlen+0x1000038bc>
100001f58: e0 03 13 aa 	mov	x0, x19
100001f5c: e1 03 14 aa 	mov	x1, x20
100001f60: 42 06 00 94 	bl	0x100003868 <_strlen+0x100003868>
100001f64: e0 03 13 aa 	mov	x0, x19
100001f68: 43 06 00 94 	bl	0x100003874 <_strlen+0x100003874>
100001f6c: fd 7b 44 a9 	ldp	x29, x30, [sp, #64]
100001f70: f4 4f 43 a9 	ldp	x20, x19, [sp, #48]
100001f74: f6 57 42 a9 	ldp	x22, x21, [sp, #32]
100001f78: ff 43 01 91 	add	sp, sp, #80
100001f7c: c0 03 5f d6 	ret
100001f80: f3 03 00 aa 	mov	x19, x0
100001f84: e0 63 00 91 	add	x0, sp, #24
100001f88: 4d 06 00 94 	bl	0x1000038bc <_strlen+0x1000038bc>
100001f8c: e0 03 13 aa 	mov	x0, x19
100001f90: 1e 06 00 94 	bl	0x100003808 <_strlen+0x100003808>

0000000100001f94 <__Z13do_benchmark2v>:
100001f94: 0b 00 80 52 	mov	w11, #0
100001f98: 09 00 80 52 	mov	w9, #0
100001f9c: 00 00 80 52 	mov	w0, #0
100001fa0: 28 40 99 52 	mov	w8, #51713
100001fa4: 48 73 a7 72 	movk	w8, #15258, lsl #16
100001fa8: 03 00 00 14 	b	0x100001fb4 <__Z13do_benchmark2v+0x20>
100001fac: 4b 7d 0a 1b 	mul	w11, w10, w10
100001fb0: e9 03 0a aa 	mov	x9, x10
100001fb4: 00 00 0b 0b 	add	w0, w0, w11
100001fb8: 2a 05 00 11 	add	w10, w9, #1
100001fbc: 5f 01 08 6b 	cmp	w10, w8
100001fc0: a0 00 00 54 	b.eq	0x100001fd4 <__Z13do_benchmark2v+0x40>
100001fc4: 4a ff 07 36 	tbz	w10, #0, 0x100001fac <__Z13do_benchmark2v+0x18>
100001fc8: 2a 09 00 11 	add	w10, w9, #2
100001fcc: 5f 01 08 6b 	cmp	w10, w8
100001fd0: e1 fe ff 54 	b.ne	0x100001fac <__Z13do_benchmark2v+0x18>
100001fd4: c0 03 5f d6 	ret

0000000100001fd8 <__Z10benchmark2v>:
100001fd8: ff 03 01 d1 	sub	sp, sp, #64
100001fdc: f6 57 01 a9 	stp	x22, x21, [sp, #16]
100001fe0: f4 4f 02 a9 	stp	x20, x19, [sp, #32]
100001fe4: fd 7b 03 a9 	stp	x29, x30, [sp, #48]
100001fe8: fd c3 00 91 	add	x29, sp, #48
100001fec: 35 40 99 52 	mov	w21, #51713
100001ff0: 55 73 a7 72 	movk	w21, #15258, lsl #16
100001ff4: 2f 06 00 94 	bl	0x1000038b0 <_strlen+0x1000038b0>
100001ff8: f3 03 00 aa 	mov	x19, x0
100001ffc: 0a 00 80 52 	mov	w10, #0
100002000: 08 00 80 52 	mov	w8, #0
100002004: 14 00 80 52 	mov	w20, #0
100002008: 03 00 00 14 	b	0x100002014 <__Z10benchmark2v+0x3c>
10000200c: 2a 7d 09 1b 	mul	w10, w9, w9
100002010: e8 03 09 aa 	mov	x8, x9
100002014: 94 02 0a 0b 	add	w20, w20, w10
100002018: 09 05 00 11 	add	w9, w8, #1
10000201c: 3f 01 15 6b 	cmp	w9, w21
100002020: a0 00 00 54 	b.eq	0x100002034 <__Z10benchmark2v+0x5c>
100002024: 49 ff 07 36 	tbz	w9, #0, 0x10000200c <__Z10benchmark2v+0x34>
100002028: 09 09 00 11 	add	w9, w8, #2
10000202c: 3f 01 15 6b 	cmp	w9, w21
100002030: e1 fe ff 54 	b.ne	0x10000200c <__Z10benchmark2v+0x34>
100002034: 1f 06 00 94 	bl	0x1000038b0 <_strlen+0x1000038b0>
100002038: f5 03 00 aa 	mov	x21, x0
10000203c: 1f 20 03 d5 	nop
100002040: c0 01 01 58 	ldr	x0, 0x100004078 <_strlen+0x100004078>
100002044: e1 03 14 aa 	mov	x1, x20
100002048: 17 06 00 94 	bl	0x1000038a4 <_strlen+0x1000038a4>
10000204c: c1 eb 00 30 	adr	x1, #7545
100002050: 1f 20 03 d5 	nop
100002054: c2 01 80 52 	mov	w2, #14
100002058: 8e 03 00 94 	bl	0x100002e90 <__ZNSt3__124__put_character_sequenceIcNS_11char_traitsIcEEEERNS_13basic_ostreamIT_T0_EES7_PKS4_m>
10000205c: a8 02 13 cb 	sub	x8, x21, x19
100002060: 00 01 62 9e 	scvtf	d0, x8
100002064: 08 90 d0 d2 	mov	x8, #145685290680320
100002068: c8 25 e8 f2 	movk	x8, #16686, lsl #48
10000206c: 01 01 67 9e 	fmov	d1, x8
100002070: 00 18 61 1e 	fdiv	d0, d0, d1
100002074: 09 06 00 94 	bl	0x100003898 <_strlen+0x100003898>
100002078: e1 ea 00 10 	adr	x1, #7516
10000207c: 1f 20 03 d5 	nop
100002080: 62 00 80 52 	mov	w2, #3
100002084: 83 03 00 94 	bl	0x100002e90 <__ZNSt3__124__put_character_sequenceIcNS_11char_traitsIcEEEERNS_13basic_ostreamIT_T0_EES7_PKS4_m>
100002088: f3 03 00 aa 	mov	x19, x0
10000208c: 08 00 40 f9 	ldr	x8, [x0]
100002090: 08 81 5e f8 	ldur	x8, [x8, #-24]
100002094: 00 00 08 8b 	add	x0, x0, x8
100002098: e8 23 00 91 	add	x8, sp, #8
10000209c: e7 05 00 94 	bl	0x100003838 <_strlen+0x100003838>
1000020a0: 1f 20 03 d5 	nop
1000020a4: e1 fe 00 58 	ldr	x1, 0x100004080 <_strlen+0x100004080>
1000020a8: e0 23 00 91 	add	x0, sp, #8
1000020ac: e0 05 00 94 	bl	0x10000382c <_strlen+0x10000382c>
1000020b0: 08 00 40 f9 	ldr	x8, [x0]
1000020b4: 08 1d 40 f9 	ldr	x8, [x8, #56]
1000020b8: 41 01 80 52 	mov	w1, #10
1000020bc: 00 01 3f d6 	blr	x8
1000020c0: f4 03 00 aa 	mov	x20, x0
1000020c4: e0 23 00 91 	add	x0, sp, #8
1000020c8: fd 05 00 94 	bl	0x1000038bc <_strlen+0x1000038bc>
1000020cc: e0 03 13 aa 	mov	x0, x19
1000020d0: e1 03 14 aa 	mov	x1, x20
1000020d4: e5 05 00 94 	bl	0x100003868 <_strlen+0x100003868>
1000020d8: e0 03 13 aa 	mov	x0, x19
1000020dc: e6 05 00 94 	bl	0x100003874 <_strlen+0x100003874>
1000020e0: fd 7b 43 a9 	ldp	x29, x30, [sp, #48]
1000020e4: f4 4f 42 a9 	ldp	x20, x19, [sp, #32]
1000020e8: f6 57 41 a9 	ldp	x22, x21, [sp, #16]
1000020ec: ff 03 01 91 	add	sp, sp, #64
1000020f0: c0 03 5f d6 	ret
1000020f4: f3 03 00 aa 	mov	x19, x0
1000020f8: e0 23 00 91 	add	x0, sp, #8
1000020fc: f0 05 00 94 	bl	0x1000038bc <_strlen+0x1000038bc>
100002100: e0 03 13 aa 	mov	x0, x19
100002104: c1 05 00 94 	bl	0x100003808 <_strlen+0x100003808>

0000000100002108 <_main>:
100002108: ff 43 06 d1 	sub	sp, sp, #400
10000210c: e9 23 12 6d 	stp	d9, d8, [sp, #288]
100002110: fc 6f 13 a9 	stp	x28, x27, [sp, #304]
100002114: fa 67 14 a9 	stp	x26, x25, [sp, #320]
100002118: f8 5f 15 a9 	stp	x24, x23, [sp, #336]
10000211c: f6 57 16 a9 	stp	x22, x21, [sp, #352]
100002120: f4 4f 17 a9 	stp	x20, x19, [sp, #368]
100002124: fd 7b 18 a9 	stp	x29, x30, [sp, #384]
100002128: fd 03 06 91 	add	x29, sp, #384
10000212c: 08 00 80 d2 	mov	x8, #0
100002130: f7 c3 02 91 	add	x23, sp, #176
100002134: ab 00 80 52 	mov	w11, #5
100002138: 89 00 80 52 	mov	w9, #4
10000213c: 4a 01 80 52 	mov	w10, #10
100002140: 0c 04 80 52 	mov	w12, #32
100002144: 7f 11 00 71 	cmp	w11, #4
100002148: 6d c1 89 1a 	csel	w13, w11, w9, gt
10000214c: ae 01 0b 4b 	sub	w14, w13, w11
100002150: 4f 01 0b 4b 	sub	w15, w10, w11
100002154: df 01 0f 6b 	cmp	w14, w15
100002158: ce 31 8f 1a 	csel	w14, w14, w15, lo
10000215c: cf 05 00 11 	add	w15, w14, #1
100002160: ff 85 00 71 	cmp	w15, #33
100002164: 43 01 00 54 	b.lo	0x10000218c <_main+0x84>
100002168: f0 11 00 12 	and	w16, w15, #0x1f
10000216c: ff 11 00 72 	tst	w15, #0x1f
100002170: 90 01 90 1a 	csel	w16, w12, w16, eq
100002174: ef 01 10 4b 	sub	w15, w15, w16
100002178: 6b 01 0f 0b 	add	w11, w11, w15
10000217c: ce 01 10 4b 	sub	w14, w14, w16
100002180: ce 05 00 11 	add	w14, w14, #1
100002184: ce 81 00 71 	subs	w14, w14, #32
100002188: e1 ff ff 54 	b.ne	0x100002184 <_main+0x7c>
10000218c: ee 03 0b aa 	mov	x14, x11
100002190: 08 05 00 91 	add	x8, x8, #1
100002194: ab 05 00 11 	add	w11, w13, #1
100002198: df 29 00 71 	cmp	w14, #10
10000219c: a0 00 00 54 	b.eq	0x1000021b0 <_main+0xa8>
1000021a0: ce 05 00 11 	add	w14, w14, #1
1000021a4: 7f 01 0e 6b 	cmp	w11, w14
1000021a8: 81 ff ff 54 	b.ne	0x100002198 <_main+0x90>
1000021ac: e6 ff ff 17 	b	0x100002144 <_main+0x3c>
1000021b0: 1f 19 00 f1 	cmp	x8, #6
1000021b4: 21 4e 00 54 	b.ne	0x100002b78 <_main+0xa70>
1000021b8: 28 00 80 52 	mov	w8, #1
1000021bc: 1f 0d 00 71 	cmp	w8, #3
1000021c0: c0 00 00 54 	b.eq	0x1000021d8 <_main+0xd0>
1000021c4: 09 05 00 11 	add	w9, w8, #1
1000021c8: 1f 29 00 71 	cmp	w8, #10
1000021cc: e8 03 09 aa 	mov	x8, x9
1000021d0: 61 ff ff 54 	b.ne	0x1000021bc <_main+0xb4>
1000021d4: 68 02 00 14 	b	0x100002b74 <_main+0xa6c>
1000021d8: 08 00 80 d2 	mov	x8, #0
1000021dc: 8b 00 80 52 	mov	w11, #4
1000021e0: 69 00 80 52 	mov	w9, #3
1000021e4: 4a 01 80 52 	mov	w10, #10
1000021e8: 0c 04 80 52 	mov	w12, #32
1000021ec: 7f 0d 00 71 	cmp	w11, #3
1000021f0: 6d c1 89 1a 	csel	w13, w11, w9, gt
1000021f4: ae 01 0b 4b 	sub	w14, w13, w11
1000021f8: 4f 01 0b 4b 	sub	w15, w10, w11
1000021fc: df 01 0f 6b 	cmp	w14, w15
100002200: ce 31 8f 1a 	csel	w14, w14, w15, lo
100002204: cf 05 00 11 	add	w15, w14, #1
100002208: ff 85 00 71 	cmp	w15, #33
10000220c: 43 01 00 54 	b.lo	0x100002234 <_main+0x12c>
100002210: f0 11 00 12 	and	w16, w15, #0x1f
100002214: ff 11 00 72 	tst	w15, #0x1f
100002218: 90 01 90 1a 	csel	w16, w12, w16, eq
10000221c: ef 01 10 4b 	sub	w15, w15, w16
100002220: 6b 01 0f 0b 	add	w11, w11, w15
100002224: ce 01 10 4b 	sub	w14, w14, w16
100002228: ce 05 00 11 	add	w14, w14, #1
10000222c: ce 81 00 71 	subs	w14, w14, #32
100002230: e1 ff ff 54 	b.ne	0x10000222c <_main+0x124>
100002234: ee 03 0b aa 	mov	x14, x11
100002238: 08 05 00 91 	add	x8, x8, #1
10000223c: ab 05 00 11 	add	w11, w13, #1
100002240: df 29 00 71 	cmp	w14, #10
100002244: a0 00 00 54 	b.eq	0x100002258 <_main+0x150>
100002248: ce 05 00 11 	add	w14, w14, #1
10000224c: 7f 01 0e 6b 	cmp	w11, w14
100002250: 81 ff ff 54 	b.ne	0x100002240 <_main+0x138>
100002254: e6 ff ff 17 	b	0x1000021ec <_main+0xe4>
100002258: 1f 1d 00 f1 	cmp	x8, #7
10000225c: c1 48 00 54 	b.ne	0x100002b74 <_main+0xa6c>
100002260: 1f 20 03 d5 	nop
100002264: e8 b8 00 5c 	ldr	d8, 0x100003980 <_strlen+0x100003980>
100002268: a8 83 18 fc 	stur	d8, [x29, #-120]
10000226c: 68 00 80 52 	mov	w8, #3
100002270: a8 03 19 b8 	stur	w8, [x29, #-112]
100002274: a8 e3 01 d1 	sub	x8, x29, #120
100002278: 18 31 00 91 	add	x24, x8, #12
10000227c: a8 83 19 f8 	stur	x8, [x29, #-104]
100002280: 21 00 80 52 	mov	w1, #1
100002284: 1f 20 03 d5 	nop
100002288: 93 ef 00 58 	ldr	x19, 0x100004078 <_strlen+0x100004078>
10000228c: 1f 20 03 d5 	nop
100002290: 94 ef 00 58 	ldr	x20, 0x100004080 <_strlen+0x100004080>
100002294: e0 03 13 aa 	mov	x0, x19
100002298: 83 05 00 94 	bl	0x1000038a4 <_strlen+0x1000038a4>
10000229c: f5 03 00 aa 	mov	x21, x0
1000022a0: 08 00 40 f9 	ldr	x8, [x0]
1000022a4: 08 81 5e f8 	ldur	x8, [x8, #-24]
1000022a8: 00 00 08 8b 	add	x0, x0, x8
1000022ac: e8 c3 02 91 	add	x8, sp, #176
1000022b0: 62 05 00 94 	bl	0x100003838 <_strlen+0x100003838>
1000022b4: e0 c3 02 91 	add	x0, sp, #176
1000022b8: e1 03 14 aa 	mov	x1, x20
1000022bc: 5c 05 00 94 	bl	0x10000382c <_strlen+0x10000382c>
1000022c0: 08 00 40 f9 	ldr	x8, [x0]
1000022c4: 08 1d 40 f9 	ldr	x8, [x8, #56]
1000022c8: 41 01 80 52 	mov	w1, #10
1000022cc: 00 01 3f d6 	blr	x8
1000022d0: f6 03 00 aa 	mov	x22, x0
1000022d4: e0 c3 02 91 	add	x0, sp, #176
1000022d8: 79 05 00 94 	bl	0x1000038bc <_strlen+0x1000038bc>
1000022dc: e0 03 15 aa 	mov	x0, x21
1000022e0: e1 03 16 aa 	mov	x1, x22
1000022e4: 61 05 00 94 	bl	0x100003868 <_strlen+0x100003868>
1000022e8: e0 03 15 aa 	mov	x0, x21
1000022ec: 62 05 00 94 	bl	0x100003874 <_strlen+0x100003874>
1000022f0: a8 83 59 f8 	ldur	x8, [x29, #-104]
1000022f4: 08 11 00 91 	add	x8, x8, #4
1000022f8: a8 83 19 f8 	stur	x8, [x29, #-104]
1000022fc: 1f 01 18 eb 	cmp	x8, x24
100002300: 60 00 00 54 	b.eq	0x10000230c <_main+0x204>
100002304: 01 01 40 b9 	ldr	w1, [x8]
100002308: e3 ff ff 17 	b	0x100002294 <_main+0x18c>
10000230c: a0 83 d8 3c 	ldur	q0, [x29, #-120]
100002310: e0 02 80 3d 	str	q0, [x23]
100002314: e8 c3 02 91 	add	x8, sp, #176
100002318: e8 63 00 f9 	str	x8, [sp, #192]
10000231c: e1 b3 40 b9 	ldr	w1, [sp, #176]
100002320: 3f 04 00 71 	cmp	w1, #1
100002324: 8c 01 00 54 	b.gt	0x100002354 <_main+0x24c>
100002328: 09 01 7e b2 	orr	x9, x8, #0x4
10000232c: e9 63 00 f9 	str	x9, [sp, #192]
100002330: e1 b7 40 b9 	ldr	w1, [sp, #180]
100002334: 3f 04 00 71 	cmp	w1, #1
100002338: ec 00 00 54 	b.gt	0x100002354 <_main+0x24c>
10000233c: e9 c3 02 91 	add	x9, sp, #176
100002340: 29 01 7d b2 	orr	x9, x9, #0x8
100002344: e9 63 00 f9 	str	x9, [sp, #192]
100002348: e1 bb 40 b9 	ldr	w1, [sp, #184]
10000234c: 3f 08 00 71 	cmp	w1, #2
100002350: eb 04 00 54 	b.lt	0x1000023ec <_main+0x2e4>
100002354: 18 05 7e b2 	orr	x24, x8, #0xc
100002358: 1f 20 03 d5 	nop
10000235c: f3 e8 00 58 	ldr	x19, 0x100004078 <_strlen+0x100004078>
100002360: 1f 20 03 d5 	nop
100002364: f4 e8 00 58 	ldr	x20, 0x100004080 <_strlen+0x100004080>
100002368: e0 03 13 aa 	mov	x0, x19
10000236c: 4e 05 00 94 	bl	0x1000038a4 <_strlen+0x1000038a4>
100002370: f5 03 00 aa 	mov	x21, x0
100002374: 08 00 40 f9 	ldr	x8, [x0]
100002378: 08 81 5e f8 	ldur	x8, [x8, #-24]
10000237c: 00 00 08 8b 	add	x0, x0, x8
100002380: e8 83 01 91 	add	x8, sp, #96
100002384: 2d 05 00 94 	bl	0x100003838 <_strlen+0x100003838>
100002388: e0 83 01 91 	add	x0, sp, #96
10000238c: e1 03 14 aa 	mov	x1, x20
100002390: 27 05 00 94 	bl	0x10000382c <_strlen+0x10000382c>
100002394: 08 00 40 f9 	ldr	x8, [x0]
100002398: 08 1d 40 f9 	ldr	x8, [x8, #56]
10000239c: 41 01 80 52 	mov	w1, #10
1000023a0: 00 01 3f d6 	blr	x8
1000023a4: f6 03 00 aa 	mov	x22, x0
1000023a8: e0 83 01 91 	add	x0, sp, #96
1000023ac: 44 05 00 94 	bl	0x1000038bc <_strlen+0x1000038bc>
1000023b0: e0 03 15 aa 	mov	x0, x21
1000023b4: e1 03 16 aa 	mov	x1, x22
1000023b8: 2c 05 00 94 	bl	0x100003868 <_strlen+0x100003868>
1000023bc: e0 03 15 aa 	mov	x0, x21
1000023c0: 2d 05 00 94 	bl	0x100003874 <_strlen+0x100003874>
1000023c4: e8 63 40 f9 	ldr	x8, [sp, #192]
1000023c8: 08 11 00 91 	add	x8, x8, #4
1000023cc: 1f 01 18 eb 	cmp	x8, x24
1000023d0: e0 00 00 54 	b.eq	0x1000023ec <_main+0x2e4>
1000023d4: 01 45 40 b8 	ldr	w1, [x8], #4
1000023d8: 3f 08 00 71 	cmp	w1, #2
1000023dc: 8b ff ff 54 	b.lt	0x1000023cc <_main+0x2c4>
1000023e0: 08 11 00 d1 	sub	x8, x8, #4
1000023e4: e8 63 00 f9 	str	x8, [sp, #192]
1000023e8: e0 ff ff 17 	b	0x100002368 <_main+0x260>
1000023ec: a0 83 d8 3c 	ldur	q0, [x29, #-120]
1000023f0: e0 02 80 3d 	str	q0, [x23]
1000023f4: e8 c3 02 91 	add	x8, sp, #176
1000023f8: e8 63 00 f9 	str	x8, [sp, #192]
1000023fc: e9 b3 40 b9 	ldr	w9, [sp, #176]
100002400: 3f 05 00 71 	cmp	w9, #1
100002404: 8c 01 00 54 	b.gt	0x100002434 <_main+0x32c>
100002408: 09 01 7e b2 	orr	x9, x8, #0x4
10000240c: e9 63 00 f9 	str	x9, [sp, #192]
100002410: e9 b7 40 b9 	ldr	w9, [sp, #180]
100002414: 3f 05 00 71 	cmp	w9, #1
100002418: ec 00 00 54 	b.gt	0x100002434 <_main+0x32c>
10000241c: e9 c3 02 91 	add	x9, sp, #176
100002420: 29 01 7d b2 	orr	x9, x9, #0x8
100002424: e9 63 00 f9 	str	x9, [sp, #192]
100002428: e9 bb 40 b9 	ldr	w9, [sp, #184]
10000242c: 3f 09 00 71 	cmp	w9, #2
100002430: 6b 05 00 54 	b.lt	0x1000024dc <_main+0x3d4>
100002434: 21 79 1f 53 	lsl	w1, w9, #1
100002438: e1 d7 00 b9 	str	w1, [sp, #212]
10000243c: 18 05 7e b2 	orr	x24, x8, #0xc
100002440: 1f 20 03 d5 	nop
100002444: b3 e1 00 58 	ldr	x19, 0x100004078 <_strlen+0x100004078>
100002448: 1f 20 03 d5 	nop
10000244c: b4 e1 00 58 	ldr	x20, 0x100004080 <_strlen+0x100004080>
100002450: e0 03 13 aa 	mov	x0, x19
100002454: 14 05 00 94 	bl	0x1000038a4 <_strlen+0x1000038a4>
100002458: f5 03 00 aa 	mov	x21, x0
10000245c: 08 00 40 f9 	ldr	x8, [x0]
100002460: 08 81 5e f8 	ldur	x8, [x8, #-24]
100002464: 00 00 08 8b 	add	x0, x0, x8
100002468: e8 83 01 91 	add	x8, sp, #96
10000246c: f3 04 00 94 	bl	0x100003838 <_strlen+0x100003838>
100002470: e0 83 01 91 	add	x0, sp, #96
100002474: e1 03 14 aa 	mov	x1, x20
100002478: ed 04 00 94 	bl	0x10000382c <_strlen+0x10000382c>
10000247c: 08 00 40 f9 	ldr	x8, [x0]
100002480: 08 1d 40 f9 	ldr	x8, [x8, #56]
100002484: 41 01 80 52 	mov	w1, #10
100002488: 00 01 3f d6 	blr	x8
10000248c: f6 03 00 aa 	mov	x22, x0
100002490: e0 83 01 91 	add	x0, sp, #96
100002494: 0a 05 00 94 	bl	0x1000038bc <_strlen+0x1000038bc>
100002498: e0 03 15 aa 	mov	x0, x21
10000249c: e1 03 16 aa 	mov	x1, x22
1000024a0: f2 04 00 94 	bl	0x100003868 <_strlen+0x100003868>
1000024a4: e0 03 15 aa 	mov	x0, x21
1000024a8: f3 04 00 94 	bl	0x100003874 <_strlen+0x100003874>
1000024ac: e8 63 40 f9 	ldr	x8, [sp, #192]
1000024b0: 08 11 00 91 	add	x8, x8, #4
1000024b4: 1f 01 18 eb 	cmp	x8, x24
1000024b8: 20 01 00 54 	b.eq	0x1000024dc <_main+0x3d4>
1000024bc: 09 45 40 b8 	ldr	w9, [x8], #4
1000024c0: 3f 09 00 71 	cmp	w9, #2
1000024c4: 8b ff ff 54 	b.lt	0x1000024b4 <_main+0x3ac>
1000024c8: 08 11 00 d1 	sub	x8, x8, #4
1000024cc: e8 63 00 f9 	str	x8, [sp, #192]
1000024d0: 21 79 1f 53 	lsl	w1, w9, #1
1000024d4: e1 d7 00 b9 	str	w1, [sp, #212]
1000024d8: de ff ff 17 	b	0x100002450 <_main+0x348>
1000024dc: e8 c3 02 91 	add	x8, sp, #176
1000024e0: 09 01 7e b2 	orr	x9, x8, #0x4
1000024e4: e8 5b 00 fd 	str	d8, [sp, #176]
1000024e8: 6a 00 80 52 	mov	w10, #3
1000024ec: ea bb 00 b9 	str	w10, [sp, #184]
1000024f0: 18 31 00 91 	add	x24, x8, #12
1000024f4: e9 63 00 f9 	str	x9, [sp, #192]
1000024f8: 81 00 80 52 	mov	w1, #4
1000024fc: 1f 20 03 d5 	nop
100002500: d3 db 00 58 	ldr	x19, 0x100004078 <_strlen+0x100004078>
100002504: 1f 20 03 d5 	nop
100002508: d4 db 00 58 	ldr	x20, 0x100004080 <_strlen+0x100004080>
10000250c: e1 d7 00 b9 	str	w1, [sp, #212]
100002510: e0 03 13 aa 	mov	x0, x19
100002514: e4 04 00 94 	bl	0x1000038a4 <_strlen+0x1000038a4>
100002518: f5 03 00 aa 	mov	x21, x0
10000251c: 08 00 40 f9 	ldr	x8, [x0]
100002520: 08 81 5e f8 	ldur	x8, [x8, #-24]
100002524: 00 00 08 8b 	add	x0, x0, x8
100002528: e8 83 01 91 	add	x8, sp, #96
10000252c: c3 04 00 94 	bl	0x100003838 <_strlen+0x100003838>
100002530: e0 83 01 91 	add	x0, sp, #96
100002534: e1 03 14 aa 	mov	x1, x20
100002538: bd 04 00 94 	bl	0x10000382c <_strlen+0x10000382c>
10000253c: 08 00 40 f9 	ldr	x8, [x0]
100002540: 08 1d 40 f9 	ldr	x8, [x8, #56]
100002544: 41 01 80 52 	mov	w1, #10
100002548: 00 01 3f d6 	blr	x8
10000254c: f6 03 00 aa 	mov	x22, x0
100002550: e0 83 01 91 	add	x0, sp, #96
100002554: da 04 00 94 	bl	0x1000038bc <_strlen+0x1000038bc>
100002558: e0 03 15 aa 	mov	x0, x21
10000255c: e1 03 16 aa 	mov	x1, x22
100002560: c2 04 00 94 	bl	0x100003868 <_strlen+0x100003868>
100002564: e0 03 15 aa 	mov	x0, x21
100002568: c3 04 00 94 	bl	0x100003874 <_strlen+0x100003874>
10000256c: e8 63 40 f9 	ldr	x8, [sp, #192]
100002570: 08 11 00 91 	add	x8, x8, #4
100002574: 1f 01 18 eb 	cmp	x8, x24
100002578: 00 01 00 54 	b.eq	0x100002598 <_main+0x490>
10000257c: 09 45 40 b8 	ldr	w9, [x8], #4
100002580: 3f 09 00 71 	cmp	w9, #2
100002584: 8b ff ff 54 	b.lt	0x100002574 <_main+0x46c>
100002588: 08 11 00 d1 	sub	x8, x8, #4
10000258c: e8 63 00 f9 	str	x8, [sp, #192]
100002590: 21 79 1f 53 	lsl	w1, w9, #1
100002594: de ff ff 17 	b	0x10000250c <_main+0x404>
100002598: e8 5b 00 fd 	str	d8, [sp, #176]
10000259c: 68 00 80 52 	mov	w8, #3
1000025a0: e8 bb 00 b9 	str	w8, [sp, #184]
1000025a4: e8 c3 02 91 	add	x8, sp, #176
1000025a8: e8 63 00 f9 	str	x8, [sp, #192]
1000025ac: 18 31 00 91 	add	x24, x8, #12
1000025b0: 21 00 80 52 	mov	w1, #1
1000025b4: 1f 20 03 d5 	nop
1000025b8: 13 d6 00 58 	ldr	x19, 0x100004078 <_strlen+0x100004078>
1000025bc: 1f 20 03 d5 	nop
1000025c0: 14 d6 00 58 	ldr	x20, 0x100004080 <_strlen+0x100004080>
1000025c4: e0 03 13 aa 	mov	x0, x19
1000025c8: b7 04 00 94 	bl	0x1000038a4 <_strlen+0x1000038a4>
1000025cc: f5 03 00 aa 	mov	x21, x0
1000025d0: 08 00 40 f9 	ldr	x8, [x0]
1000025d4: 08 81 5e f8 	ldur	x8, [x8, #-24]
1000025d8: 00 00 08 8b 	add	x0, x0, x8
1000025dc: e8 83 01 91 	add	x8, sp, #96
1000025e0: 96 04 00 94 	bl	0x100003838 <_strlen+0x100003838>
1000025e4: e0 83 01 91 	add	x0, sp, #96
1000025e8: e1 03 14 aa 	mov	x1, x20
1000025ec: 90 04 00 94 	bl	0x10000382c <_strlen+0x10000382c>
1000025f0: 08 00 40 f9 	ldr	x8, [x0]
1000025f4: 08 1d 40 f9 	ldr	x8, [x8, #56]
1000025f8: 41 01 80 52 	mov	w1, #10
1000025fc: 00 01 3f d6 	blr	x8
100002600: f6 03 00 aa 	mov	x22, x0
100002604: e0 83 01 91 	add	x0, sp, #96
100002608: ad 04 00 94 	bl	0x1000038bc <_strlen+0x1000038bc>
10000260c: e0 03 15 aa 	mov	x0, x21
100002610: e1 03 16 aa 	mov	x1, x22
100002614: 95 04 00 94 	bl	0x100003868 <_strlen+0x100003868>
100002618: e0 03 15 aa 	mov	x0, x21
10000261c: 96 04 00 94 	bl	0x100003874 <_strlen+0x100003874>
100002620: e8 63 40 f9 	ldr	x8, [sp, #192]
100002624: 08 11 00 91 	add	x8, x8, #4
100002628: e8 63 00 f9 	str	x8, [sp, #192]
10000262c: 1f 01 18 eb 	cmp	x8, x24
100002630: 60 00 00 54 	b.eq	0x10000263c <_main+0x534>
100002634: 01 01 40 b9 	ldr	w1, [x8]
100002638: e3 ff ff 17 	b	0x1000025c4 <_main+0x4bc>
10000263c: e8 c3 02 91 	add	x8, sp, #176
100002640: 08 21 00 91 	add	x8, x8, #8
100002644: e8 5f 00 fd 	str	d8, [sp, #184]
100002648: 69 00 80 52 	mov	w9, #3
10000264c: e9 c3 00 b9 	str	w9, [sp, #192]
100002650: 1f 20 03 d5 	nop
100002654: aa d3 00 58 	ldr	x10, 0x1000040c8 <_strlen+0x1000040c8>
100002658: 4a 41 00 91 	add	x10, x10, #16
10000265c: ea 5b 00 f9 	str	x10, [sp, #176]
100002660: eb 83 01 91 	add	x11, sp, #96
100002664: 6b 21 00 91 	add	x11, x11, #8
100002668: e8 37 00 fd 	str	d8, [sp, #104]
10000266c: e9 73 00 b9 	str	w9, [sp, #112]
100002670: ea 33 00 f9 	str	x10, [sp, #96]
100002674: e8 67 00 f9 	str	x8, [sp, #200]
100002678: eb 3f 00 f9 	str	x11, [sp, #120]
10000267c: e8 5b 40 f9 	ldr	x8, [sp, #176]
100002680: 08 05 40 f9 	ldr	x8, [x8, #8]
100002684: e0 c3 02 91 	add	x0, sp, #176
100002688: 00 01 3f d6 	blr	x8
10000268c: f3 03 00 aa 	mov	x19, x0
100002690: e8 33 40 f9 	ldr	x8, [sp, #96]
100002694: 08 05 40 f9 	ldr	x8, [x8, #8]
100002698: e0 83 01 91 	add	x0, sp, #96
10000269c: 00 01 3f d6 	blr	x8
1000026a0: 7f 02 00 f1 	cmp	x19, #0
1000026a4: 04 18 40 fa 	ccmp	x0, #0, #4, ne
1000026a8: c0 00 00 54 	b.eq	0x1000026c0 <_main+0x5b8>
1000026ac: 68 02 40 b9 	ldr	w8, [x19]
1000026b0: 09 00 40 b9 	ldr	w9, [x0]
1000026b4: 1f 01 09 6b 	cmp	w8, w9
1000026b8: 20 fe ff 54 	b.eq	0x10000267c <_main+0x574>
1000026bc: 29 04 00 94 	bl	0x100003760 <_main.cold.2>
1000026c0: 68 02 00 aa 	orr	x8, x19, x0
1000026c4: c8 ff ff b5 	cbnz	x8, 0x1000026bc <_main+0x5b4>
1000026c8: 28 00 80 52 	mov	w8, #1
1000026cc: e8 7f 01 39 	strb	w8, [sp, #95]
1000026d0: 28 0c 80 52 	mov	w8, #97
1000026d4: e8 93 00 79 	strh	w8, [sp, #72]
1000026d8: e0 23 00 91 	add	x0, sp, #8
1000026dc: e1 23 01 91 	add	x1, sp, #72
1000026e0: 5c 04 00 94 	bl	0x100003850 <_strlen+0x100003850>
1000026e4: 54 bc 00 70 	adr	x20, #6027
1000026e8: 1f 20 03 d5 	nop
1000026ec: 33 bc 00 30 	adr	x19, #6021
1000026f0: 1f 20 03 d5 	nop
1000026f4: e0 83 01 91 	add	x0, sp, #96
1000026f8: e1 23 00 91 	add	x1, sp, #8
1000026fc: e2 03 14 aa 	mov	x2, x20
100002700: e3 03 13 aa 	mov	x3, x19
100002704: c7 02 00 94 	bl	0x100003220 <__ZN9sequences21stored_array_sequenceINSt3__112basic_stringIcNS1_11char_traitsIcEENS1_9allocatorIcEEEELi3EEC2IJS7_PKcSB_EEEDpT_>
100002708: e8 7f c0 39 	ldrsb	w8, [sp, #31]
10000270c: 68 00 f8 36 	tbz	w8, #31, 0x100002718 <_main+0x610>
100002710: e0 07 40 f9 	ldr	x0, [sp, #8]
100002714: 76 04 00 94 	bl	0x1000038ec <_strlen+0x1000038ec>
100002718: e8 c3 02 91 	add	x8, sp, #176
10000271c: e0 83 01 91 	add	x0, sp, #96
100002720: 88 03 00 94 	bl	0x100003540 <__ZNK9sequences13base_sequenceINSt3__112basic_stringIcNS1_11char_traitsIcEENS1_9allocatorIcEEEENS_21stored_array_sequenceIS7_Li3EEEE12make_virtualEv>
100002724: 1f 20 03 d5 	nop
100002728: c8 cc 00 58 	ldr	x8, 0x1000040c0 <_strlen+0x1000040c0>
10000272c: 08 41 00 91 	add	x8, x8, #16
100002730: e8 5b 00 f9 	str	x8, [sp, #176]
100002734: e8 ff c3 39 	ldrsb	w8, [sp, #255]
100002738: c8 1b f8 37 	tbnz	w8, #31, 0x100002ab0 <_main+0x9a8>
10000273c: e8 9f c3 39 	ldrsb	w8, [sp, #231]
100002740: 08 1c f8 37 	tbnz	w8, #31, 0x100002ac0 <_main+0x9b8>
100002744: e8 3f c3 39 	ldrsb	w8, [sp, #207]
100002748: 48 1c f8 37 	tbnz	w8, #31, 0x100002ad0 <_main+0x9c8>
10000274c: e8 9f c2 39 	ldrsb	w8, [sp, #167]
100002750: 88 1c f8 37 	tbnz	w8, #31, 0x100002ae0 <_main+0x9d8>
100002754: e8 3f c2 39 	ldrsb	w8, [sp, #143]
100002758: c8 1c f8 37 	tbnz	w8, #31, 0x100002af0 <_main+0x9e8>
10000275c: e8 df c1 39 	ldrsb	w8, [sp, #119]
100002760: 08 1d f8 37 	tbnz	w8, #31, 0x100002b00 <_main+0x9f8>
100002764: e8 7f c1 39 	ldrsb	w8, [sp, #95]
100002768: 48 1d f8 37 	tbnz	w8, #31, 0x100002b10 <_main+0xa08>
10000276c: 08 b8 00 30 	adr	x8, #5889
100002770: 1f 20 03 d5 	nop
100002774: e8 d3 00 a9 	stp	x8, x20, [sp, #8]
100002778: e8 23 00 91 	add	x8, sp, #8
10000277c: 01 a1 00 91 	add	x1, x8, #40
100002780: f3 0f 00 f9 	str	x19, [sp, #24]
100002784: ff 7f 03 a9 	stp	xzr, xzr, [sp, #48]
100002788: ff 23 00 f9 	str	xzr, [sp, #64]
10000278c: e0 83 c0 3c 	ldur	q0, [sp, #8]
100002790: e1 83 c1 3c 	ldur	q1, [sp, #24]
100002794: e0 07 03 ad 	stp	q0, q1, [sp, #96]
100002798: e8 83 01 91 	add	x8, sp, #96
10000279c: 13 a1 00 91 	add	x19, x8, #40
1000027a0: e0 03 13 aa 	mov	x0, x19
1000027a4: 2b 04 00 94 	bl	0x100003850 <_strlen+0x100003850>
1000027a8: 1f 20 03 d5 	nop
1000027ac: 74 c8 00 58 	ldr	x20, 0x1000040b8 <_strlen+0x1000040b8>
1000027b0: 88 42 00 91 	add	x8, x20, #16
1000027b4: e8 5b 00 f9 	str	x8, [sp, #176]
1000027b8: e0 07 43 ad 	ldp	q0, q1, [sp, #96]
1000027bc: e0 82 80 3c 	stur	q0, [x23, #8]
1000027c0: e1 82 81 3c 	stur	q1, [x23, #24]
1000027c4: e8 c3 02 91 	add	x8, sp, #176
1000027c8: 00 c1 00 91 	add	x0, x8, #48
1000027cc: e1 03 13 aa 	mov	x1, x19
1000027d0: 20 04 00 94 	bl	0x100003850 <_strlen+0x100003850>
1000027d4: e8 7f c2 39 	ldrsb	w8, [sp, #159]
1000027d8: 28 1a f8 37 	tbnz	w8, #31, 0x100002b1c <_main+0xa14>
1000027dc: 88 42 00 91 	add	x8, x20, #16
1000027e0: e8 5b 00 f9 	str	x8, [sp, #176]
1000027e4: e8 df c3 39 	ldrsb	w8, [sp, #247]
1000027e8: 68 1a f8 37 	tbnz	w8, #31, 0x100002b34 <_main+0xa2c>
1000027ec: e8 1f c1 39 	ldrsb	w8, [sp, #71]
1000027f0: a8 1a f8 37 	tbnz	w8, #31, 0x100002b44 <_main+0xa3c>
1000027f4: 1f 20 03 d5 	nop
1000027f8: 13 c4 00 58 	ldr	x19, 0x100004078 <_strlen+0x100004078>
1000027fc: e0 03 13 aa 	mov	x0, x19
100002800: 41 00 80 52 	mov	w1, #2
100002804: 28 04 00 94 	bl	0x1000038a4 <_strlen+0x1000038a4>
100002808: 54 b3 00 70 	adr	x20, #5739
10000280c: 1f 20 03 d5 	nop
100002810: e1 03 14 aa 	mov	x1, x20
100002814: 22 00 80 52 	mov	w2, #1
100002818: 9e 01 00 94 	bl	0x100002e90 <__ZNSt3__124__put_character_sequenceIcNS_11char_traitsIcEEEERNS_13basic_ostreamIT_T0_EES7_PKS4_m>
10000281c: 75 00 80 52 	mov	w21, #3
100002820: 0a 00 00 14 	b	0x100002848 <_main+0x740>
100002824: e0 03 13 aa 	mov	x0, x19
100002828: e1 03 15 aa 	mov	x1, x21
10000282c: 1e 04 00 94 	bl	0x1000038a4 <_strlen+0x1000038a4>
100002830: e1 03 14 aa 	mov	x1, x20
100002834: 22 00 80 52 	mov	w2, #1
100002838: 96 01 00 94 	bl	0x100002e90 <__ZNSt3__124__put_character_sequenceIcNS_11char_traitsIcEEEERNS_13basic_ostreamIT_T0_EES7_PKS4_m>
10000283c: b5 06 00 11 	add	w21, w21, #1
100002840: bf a6 0f 71 	cmp	w21, #1001
100002844: 60 01 00 54 	b.eq	0x100002870 <_main+0x768>
100002848: bf 0a 00 71 	cmp	w21, #2
10000284c: c0 fe ff 54 	b.eq	0x100002824 <_main+0x71c>
100002850: 48 00 80 52 	mov	w8, #2
100002854: a9 0e c8 1a 	sdiv	w9, w21, w8
100002858: 29 d5 08 1b 	msub	w9, w9, w8, w21
10000285c: 09 ff ff 34 	cbz	w9, 0x10000283c <_main+0x734>
100002860: 08 05 00 11 	add	w8, w8, #1
100002864: bf 02 08 6b 	cmp	w21, w8
100002868: 61 ff ff 54 	b.ne	0x100002854 <_main+0x74c>
10000286c: ee ff ff 17 	b	0x100002824 <_main+0x71c>
100002870: 68 02 40 f9 	ldr	x8, [x19]
100002874: 08 81 5e f8 	ldur	x8, [x8, #-24]
100002878: 60 02 08 8b 	add	x0, x19, x8
10000287c: e8 c3 02 91 	add	x8, sp, #176
100002880: ee 03 00 94 	bl	0x100003838 <_strlen+0x100003838>
100002884: 1f 20 03 d5 	nop
100002888: c1 bf 00 58 	ldr	x1, 0x100004080 <_strlen+0x100004080>
10000288c: e0 c3 02 91 	add	x0, sp, #176
100002890: e7 03 00 94 	bl	0x10000382c <_strlen+0x10000382c>
100002894: 08 00 40 f9 	ldr	x8, [x0]
100002898: 08 1d 40 f9 	ldr	x8, [x8, #56]
10000289c: 41 01 80 52 	mov	w1, #10
1000028a0: 00 01 3f d6 	blr	x8
1000028a4: f3 03 00 aa 	mov	x19, x0
1000028a8: e0 c3 02 91 	add	x0, sp, #176
1000028ac: 04 04 00 94 	bl	0x1000038bc <_strlen+0x1000038bc>
1000028b0: 1f 20 03 d5 	nop
1000028b4: 34 be 00 58 	ldr	x20, 0x100004078 <_strlen+0x100004078>
1000028b8: e0 03 14 aa 	mov	x0, x20
1000028bc: e1 03 13 aa 	mov	x1, x19
1000028c0: ea 03 00 94 	bl	0x100003868 <_strlen+0x100003868>
1000028c4: e0 03 14 aa 	mov	x0, x20
1000028c8: eb 03 00 94 	bl	0x100003874 <_strlen+0x100003874>
1000028cc: 17 00 80 52 	mov	w23, #0
1000028d0: 13 00 80 d2 	mov	x19, #0
1000028d4: 14 00 80 d2 	mov	x20, #0
1000028d8: 16 00 80 d2 	mov	x22, #0
1000028dc: ff 7f 0b a9 	stp	xzr, xzr, [sp, #176]
1000028e0: 58 00 80 52 	mov	w24, #2
1000028e4: ff 63 00 f9 	str	xzr, [sp, #192]
1000028e8: 19 00 fc 92 	mov	x25, #2305843009213693951
1000028ec: 1a 00 f8 92 	mov	x26, #4611686018427387903
1000028f0: 09 00 00 14 	b	0x100002914 <_main+0x80c>
1000028f4: df 02 14 eb 	cmp	x22, x20
1000028f8: 40 02 00 54 	b.eq	0x100002940 <_main+0x838>
1000028fc: d8 46 00 b8 	str	w24, [x22], #4
100002900: f6 5f 00 f9 	str	x22, [sp, #184]
100002904: 18 07 00 11 	add	w24, w24, #1
100002908: f7 06 00 11 	add	w23, w23, #1
10000290c: 1f a7 0f 71 	cmp	w24, #1001
100002910: 40 06 00 54 	b.eq	0x1000029d8 <_main+0x8d0>
100002914: 1f 0f 00 71 	cmp	w24, #3
100002918: e3 fe ff 54 	b.lo	0x1000028f4 <_main+0x7ec>
10000291c: 08 00 80 52 	mov	w8, #0
100002920: 09 09 00 11 	add	w9, w8, #2
100002924: 0a 0b c9 1a 	udiv	w10, w24, w9
100002928: 49 e1 09 1b 	msub	w9, w10, w9, w24
10000292c: c9 fe ff 34 	cbz	w9, 0x100002904 <_main+0x7fc>
100002930: 08 05 00 11 	add	w8, w8, #1
100002934: ff 02 08 6b 	cmp	w23, w8
100002938: 41 ff ff 54 	b.ne	0x100002920 <_main+0x818>
10000293c: ee ff ff 17 	b	0x1000028f4 <_main+0x7ec>
100002940: 94 02 13 cb 	sub	x20, x20, x19
100002944: 96 fe 42 93 	asr	x22, x20, #2
100002948: c8 06 00 91 	add	x8, x22, #1
10000294c: 09 fd 7e d3 	lsr	x9, x8, #62
100002950: 69 11 00 b5 	cbnz	x9, 0x100002b7c <_main+0xa74>
100002954: 89 fe 41 93 	asr	x9, x20, #1
100002958: 3f 01 08 eb 	cmp	x9, x8
10000295c: 08 31 89 9a 	csel	x8, x8, x9, lo
100002960: df 02 19 eb 	cmp	x22, x25
100002964: 1b 31 9a 9a 	csel	x27, x8, x26, lo
100002968: db 02 00 b4 	cbz	x27, 0x1000029c0 <_main+0x8b8>
10000296c: 68 ff 7e d3 	lsr	x8, x27, #62
100002970: c8 10 00 b5 	cbnz	x8, 0x100002b88 <_main+0xa80>
100002974: 60 f7 7e d3 	lsl	x0, x27, #2
100002978: e0 03 00 94 	bl	0x1000038f8 <_strlen+0x1000038f8>
10000297c: f5 03 00 aa 	mov	x21, x0
100002980: b6 0a 16 8b 	add	x22, x21, x22, lsl #2
100002984: d8 46 00 b8 	str	w24, [x22], #4
100002988: 9f 06 00 f1 	cmp	x20, #1
10000298c: ab 00 00 54 	b.lt	0x1000029a0 <_main+0x898>
100002990: e0 03 15 aa 	mov	x0, x21
100002994: e1 03 13 aa 	mov	x1, x19
100002998: e2 03 14 aa 	mov	x2, x20
10000299c: ec 03 00 94 	bl	0x10000394c <_strlen+0x10000394c>
1000029a0: b4 0a 1b 8b 	add	x20, x21, x27, lsl #2
1000029a4: f5 5b 0b a9 	stp	x21, x22, [sp, #176]
1000029a8: f4 63 00 f9 	str	x20, [sp, #192]
1000029ac: 73 00 00 b4 	cbz	x19, 0x1000029b8 <_main+0x8b0>
1000029b0: e0 03 13 aa 	mov	x0, x19
1000029b4: ce 03 00 94 	bl	0x1000038ec <_strlen+0x1000038ec>
1000029b8: f3 03 15 aa 	mov	x19, x21
1000029bc: d2 ff ff 17 	b	0x100002904 <_main+0x7fc>
1000029c0: 15 00 80 d2 	mov	x21, #0
1000029c4: b6 0a 16 8b 	add	x22, x21, x22, lsl #2
1000029c8: d8 46 00 b8 	str	w24, [x22], #4
1000029cc: 9f 06 00 f1 	cmp	x20, #1
1000029d0: 0a fe ff 54 	b.ge	0x100002990 <_main+0x888>
1000029d4: f3 ff ff 17 	b	0x1000029a0 <_main+0x898>
1000029d8: df 02 13 eb 	cmp	x22, x19
1000029dc: a0 0b 00 54 	b.eq	0x100002b50 <_main+0xa48>
1000029e0: 93 0b 00 b4 	cbz	x19, 0x100002b50 <_main+0xa48>
1000029e4: 49 00 80 52 	mov	w9, #2
1000029e8: e8 03 13 aa 	mov	x8, x19
1000029ec: 03 00 00 14 	b	0x1000029f8 <_main+0x8f0>
1000029f0: 1f 01 16 eb 	cmp	x8, x22
1000029f4: e0 0a 00 54 	b.eq	0x100002b50 <_main+0xa48>
1000029f8: 0a 01 40 b9 	ldr	w10, [x8]
1000029fc: 5f 01 09 6b 	cmp	w10, w9
100002a00: 81 0a 00 54 	b.ne	0x100002b50 <_main+0xa48>
100002a04: 08 11 00 91 	add	x8, x8, #4
100002a08: 2b 05 00 11 	add	w11, w9, #1
100002a0c: 7f a5 0f 71 	cmp	w11, #1001
100002a10: 40 02 00 54 	b.eq	0x100002a58 <_main+0x950>
100002a14: 2a 05 00 51 	sub	w10, w9, #1
100002a18: e9 03 0b aa 	mov	x9, x11
100002a1c: 3f 09 00 71 	cmp	w9, #2
100002a20: 80 fe ff 54 	b.eq	0x1000029f0 <_main+0x8e8>
100002a24: 0b 00 80 52 	mov	w11, #0
100002a28: 6c 09 00 11 	add	w12, w11, #2
100002a2c: 2d 0d cc 1a 	sdiv	w13, w9, w12
100002a30: ac a5 0c 1b 	msub	w12, w13, w12, w9
100002a34: ac 00 00 34 	cbz	w12, 0x100002a48 <_main+0x940>
100002a38: 6b 05 00 11 	add	w11, w11, #1
100002a3c: 5f 01 0b 6b 	cmp	w10, w11
100002a40: 41 ff ff 54 	b.ne	0x100002a28 <_main+0x920>
100002a44: eb ff ff 17 	b	0x1000029f0 <_main+0x8e8>
100002a48: 29 05 00 11 	add	w9, w9, #1
100002a4c: 4a 05 00 11 	add	w10, w10, #1
100002a50: 3f a5 0f 71 	cmp	w9, #1001
100002a54: 41 fe ff 54 	b.ne	0x100002a1c <_main+0x914>
100002a58: 1f 01 16 eb 	cmp	x8, x22
100002a5c: a1 07 00 54 	b.ne	0x100002b50 <_main+0xa48>
100002a60: 1f 20 03 d5 	nop
100002a64: a0 b0 00 58 	ldr	x0, 0x100004078 <_strlen+0x100004078>
100002a68: 21 a1 00 10 	adr	x1, #5156
100002a6c: 1f 20 03 d5 	nop
100002a70: c2 02 80 52 	mov	w2, #22
100002a74: 07 01 00 94 	bl	0x100002e90 <__ZNSt3__124__put_character_sequenceIcNS_11char_traitsIcEEEERNS_13basic_ostreamIT_T0_EES7_PKS4_m>
100002a78: e1 fc ff 97 	bl	0x100001dfc <__Z10benchmark1v>
100002a7c: 57 fd ff 97 	bl	0x100001fd8 <__Z10benchmark2v>
100002a80: e0 03 13 aa 	mov	x0, x19
100002a84: 9a 03 00 94 	bl	0x1000038ec <_strlen+0x1000038ec>
100002a88: 00 00 80 52 	mov	w0, #0
100002a8c: fd 7b 58 a9 	ldp	x29, x30, [sp, #384]
100002a90: f4 4f 57 a9 	ldp	x20, x19, [sp, #368]
100002a94: f6 57 56 a9 	ldp	x22, x21, [sp, #352]
100002a98: f8 5f 55 a9 	ldp	x24, x23, [sp, #336]
100002a9c: fa 67 54 a9 	ldp	x26, x25, [sp, #320]
100002aa0: fc 6f 53 a9 	ldp	x28, x27, [sp, #304]
100002aa4: e9 23 52 6d 	ldp	d9, d8, [sp, #288]
100002aa8: ff 43 06 91 	add	sp, sp, #400
100002aac: c0 03 5f d6 	ret
100002ab0: e0 77 40 f9 	ldr	x0, [sp, #232]
100002ab4: 8e 03 00 94 	bl	0x1000038ec <_strlen+0x1000038ec>
100002ab8: e8 9f c3 39 	ldrsb	w8, [sp, #231]
100002abc: 48 e4 ff 36 	tbz	w8, #31, 0x100002744 <_main+0x63c>
100002ac0: e0 6b 40 f9 	ldr	x0, [sp, #208]
100002ac4: 8a 03 00 94 	bl	0x1000038ec <_strlen+0x1000038ec>
100002ac8: e8 3f c3 39 	ldrsb	w8, [sp, #207]
100002acc: 08 e4 ff 36 	tbz	w8, #31, 0x10000274c <_main+0x644>
100002ad0: e0 5f 40 f9 	ldr	x0, [sp, #184]
100002ad4: 86 03 00 94 	bl	0x1000038ec <_strlen+0x1000038ec>
100002ad8: e8 9f c2 39 	ldrsb	w8, [sp, #167]
100002adc: c8 e3 ff 36 	tbz	w8, #31, 0x100002754 <_main+0x64c>
100002ae0: e0 4b 40 f9 	ldr	x0, [sp, #144]
100002ae4: 82 03 00 94 	bl	0x1000038ec <_strlen+0x1000038ec>
100002ae8: e8 3f c2 39 	ldrsb	w8, [sp, #143]
100002aec: 88 e3 ff 36 	tbz	w8, #31, 0x10000275c <_main+0x654>
100002af0: e0 3f 40 f9 	ldr	x0, [sp, #120]
100002af4: 7e 03 00 94 	bl	0x1000038ec <_strlen+0x1000038ec>
100002af8: e8 df c1 39 	ldrsb	w8, [sp, #119]
100002afc: 48 e3 ff 36 	tbz	w8, #31, 0x100002764 <_main+0x65c>
100002b00: e0 33 40 f9 	ldr	x0, [sp, #96]
100002b04: 7a 03 00 94 	bl	0x1000038ec <_strlen+0x1000038ec>
100002b08: e8 7f c1 39 	ldrsb	w8, [sp, #95]
100002b0c: 08 e3 ff 36 	tbz	w8, #31, 0x10000276c <_main+0x664>
100002b10: e0 27 40 f9 	ldr	x0, [sp, #72]
100002b14: 76 03 00 94 	bl	0x1000038ec <_strlen+0x1000038ec>
100002b18: 15 ff ff 17 	b	0x10000276c <_main+0x664>
100002b1c: e0 47 40 f9 	ldr	x0, [sp, #136]
100002b20: 73 03 00 94 	bl	0x1000038ec <_strlen+0x1000038ec>
100002b24: 88 42 00 91 	add	x8, x20, #16
100002b28: e8 5b 00 f9 	str	x8, [sp, #176]
100002b2c: e8 df c3 39 	ldrsb	w8, [sp, #247]
100002b30: e8 e5 ff 36 	tbz	w8, #31, 0x1000027ec <_main+0x6e4>
100002b34: e0 73 40 f9 	ldr	x0, [sp, #224]
100002b38: 6d 03 00 94 	bl	0x1000038ec <_strlen+0x1000038ec>
100002b3c: e8 1f c1 39 	ldrsb	w8, [sp, #71]
100002b40: a8 e5 ff 36 	tbz	w8, #31, 0x1000027f4 <_main+0x6ec>
100002b44: e0 1b 40 f9 	ldr	x0, [sp, #48]
100002b48: 69 03 00 94 	bl	0x1000038ec <_strlen+0x1000038ec>
100002b4c: 2a ff ff 17 	b	0x1000027f4 <_main+0x6ec>
100002b50: 40 94 00 10 	adr	x0, #4744
100002b54: 1f 20 03 d5 	nop
100002b58: a1 92 00 10 	adr	x1, #4692
100002b5c: 1f 20 03 d5 	nop
100002b60: a3 98 00 30 	adr	x3, #4885
100002b64: 1f 20 03 d5 	nop
100002b68: c2 11 80 52 	mov	w2, #142
100002b6c: 66 03 00 94 	bl	0x100003904 <_strlen+0x100003904>
100002b70: 07 00 00 14 	b	0x100002b8c <_main+0xa84>
100002b74: f1 02 00 94 	bl	0x100003738 <_main.cold.1>
100002b78: 1a 03 00 94 	bl	0x1000037e0 <_main.cold.4>
100002b7c: e0 c3 02 91 	add	x0, sp, #176
100002b80: e1 02 00 94 	bl	0x100003704 <__ZNKSt3__113__vector_baseIiNS_9allocatorIiEEE20__throw_length_errorEv>
100002b84: 02 00 00 14 	b	0x100002b8c <_main+0xa84>
100002b88: 7e 01 00 94 	bl	0x100003180 <__ZNSt3__1L20__throw_length_errorEPKc>
100002b8c: 20 00 20 d4 	brk	#0x1
100002b90: f4 03 00 aa 	mov	x20, x0
100002b94: e8 7f c2 39 	ldrsb	w8, [sp, #159]
100002b98: a8 00 f8 36 	tbz	w8, #31, 0x100002bac <_main+0xaa4>
100002b9c: e0 47 40 f9 	ldr	x0, [sp, #136]
100002ba0: 53 03 00 94 	bl	0x1000038ec <_strlen+0x1000038ec>
100002ba4: 02 00 00 14 	b	0x100002bac <_main+0xaa4>
100002ba8: f4 03 00 aa 	mov	x20, x0
100002bac: e8 1f c1 39 	ldrsb	w8, [sp, #71]
100002bb0: 68 06 f8 36 	tbz	w8, #31, 0x100002c7c <_main+0xb74>
100002bb4: e0 1b 40 f9 	ldr	x0, [sp, #48]
100002bb8: 30 00 00 14 	b	0x100002c78 <_main+0xb70>
100002bbc: f3 03 01 aa 	mov	x19, x1
100002bc0: f4 03 00 aa 	mov	x20, x0
100002bc4: e8 9f c2 39 	ldrsb	w8, [sp, #167]
100002bc8: 68 00 f8 36 	tbz	w8, #31, 0x100002bd4 <_main+0xacc>
100002bcc: e0 4b 40 f9 	ldr	x0, [sp, #144]
100002bd0: 47 03 00 94 	bl	0x1000038ec <_strlen+0x1000038ec>
100002bd4: e0 83 01 91 	add	x0, sp, #96
100002bd8: e3 23 00 91 	add	x3, sp, #8
100002bdc: e1 03 14 aa 	mov	x1, x20
100002be0: e2 03 13 aa 	mov	x2, x19
100002be4: e9 02 00 94 	bl	0x100003788 <_main.cold.3>
100002be8: f4 07 40 f9 	ldr	x20, [sp, #8]
100002bec: 08 00 00 14 	b	0x100002c0c <_main+0xb04>
100002bf0: f4 03 00 aa 	mov	x20, x0
100002bf4: e8 7f c0 39 	ldrsb	w8, [sp, #31]
100002bf8: a8 00 f8 36 	tbz	w8, #31, 0x100002c0c <_main+0xb04>
100002bfc: e0 07 40 f9 	ldr	x0, [sp, #8]
100002c00: 3b 03 00 94 	bl	0x1000038ec <_strlen+0x1000038ec>
100002c04: 02 00 00 14 	b	0x100002c0c <_main+0xb04>
100002c08: f4 03 00 aa 	mov	x20, x0
100002c0c: e8 7f c1 39 	ldrsb	w8, [sp, #95]
100002c10: 68 03 f8 36 	tbz	w8, #31, 0x100002c7c <_main+0xb74>
100002c14: e0 27 40 f9 	ldr	x0, [sp, #72]
100002c18: 18 00 00 14 	b	0x100002c78 <_main+0xb70>
100002c1c: 0e 00 00 14 	b	0x100002c54 <_main+0xb4c>
100002c20: 12 00 00 14 	b	0x100002c68 <_main+0xb60>
100002c24: 07 00 00 14 	b	0x100002c40 <_main+0xb38>
100002c28: 06 00 00 14 	b	0x100002c40 <_main+0xb38>
100002c2c: 05 00 00 14 	b	0x100002c40 <_main+0xb38>
100002c30: 0e 00 00 14 	b	0x100002c68 <_main+0xb60>
100002c34: f4 03 00 aa 	mov	x20, x0
100002c38: f3 5b 40 f9 	ldr	x19, [sp, #176]
100002c3c: 0c 00 00 14 	b	0x100002c6c <_main+0xb64>
100002c40: f4 03 00 aa 	mov	x20, x0
100002c44: e0 83 01 91 	add	x0, sp, #96
100002c48: 1d 03 00 94 	bl	0x1000038bc <_strlen+0x1000038bc>
100002c4c: e0 03 14 aa 	mov	x0, x20
100002c50: ee 02 00 94 	bl	0x100003808 <_strlen+0x100003808>
100002c54: f4 03 00 aa 	mov	x20, x0
100002c58: e0 c3 02 91 	add	x0, sp, #176
100002c5c: 18 03 00 94 	bl	0x1000038bc <_strlen+0x1000038bc>
100002c60: e0 03 14 aa 	mov	x0, x20
100002c64: e9 02 00 94 	bl	0x100003808 <_strlen+0x100003808>
100002c68: f4 03 00 aa 	mov	x20, x0
100002c6c: 93 00 00 b4 	cbz	x19, 0x100002c7c <_main+0xb74>
100002c70: f3 5f 00 f9 	str	x19, [sp, #184]
100002c74: e0 03 13 aa 	mov	x0, x19
100002c78: 1d 03 00 94 	bl	0x1000038ec <_strlen+0x1000038ec>
100002c7c: e0 03 14 aa 	mov	x0, x20
100002c80: e2 02 00 94 	bl	0x100003808 <_strlen+0x100003808>

0000000100002c84 <__ZN9sequences16virtual_sequenceINSt3__112basic_stringIcNS1_11char_traitsIcEENS1_9allocatorIcEEEENS_21stored_array_sequenceIS7_Li3EEEE5firstEv>:
100002c84: 08 20 00 91 	add	x8, x0, #8
100002c88: 08 28 00 f9 	str	x8, [x0, #80]
100002c8c: e0 03 08 aa 	mov	x0, x8
100002c90: c0 03 5f d6 	ret

0000000100002c94 <__ZN9sequences16virtual_sequenceINSt3__112basic_stringIcNS1_11char_traitsIcEENS1_9allocatorIcEEEENS_21stored_array_sequenceIS7_Li3EEEE4nextEv>:
100002c94: 08 0c 45 f8 	ldr	x8, [x0, #80]!
100002c98: 08 61 00 91 	add	x8, x8, #24
100002c9c: 08 00 00 f9 	str	x8, [x0]
100002ca0: 1f 01 00 eb 	cmp	x8, x0
100002ca4: e0 03 88 9a 	csel	x0, xzr, x8, eq
100002ca8: c0 03 5f d6 	ret

0000000100002cac <___clang_call_terminate>:
100002cac: fd 7b bf a9 	stp	x29, x30, [sp, #-16]!
100002cb0: 1b 03 00 94 	bl	0x10000391c <_strlen+0x10000391c>
100002cb4: 0b 03 00 94 	bl	0x1000038e0 <_strlen+0x1000038e0>

0000000100002cb8 <__ZN9sequences16virtual_sequenceINSt3__112basic_stringIcNS1_11char_traitsIcEENS1_9allocatorIcEEEENS_15select_sequenceIPKcNS_21stored_array_sequenceISA_Li3EEEZNKS_13base_sequenceISA_SC_E2asIS7_EEDavEUlRKSA_E_EEE5firstEv>:
100002cb8: ff 83 01 d1 	sub	sp, sp, #96
100002cbc: f8 5f 02 a9 	stp	x24, x23, [sp, #32]
100002cc0: f6 57 03 a9 	stp	x22, x21, [sp, #48]
100002cc4: f4 4f 04 a9 	stp	x20, x19, [sp, #64]
100002cc8: fd 7b 05 a9 	stp	x29, x30, [sp, #80]
100002ccc: fd 43 01 91 	add	x29, sp, #80
100002cd0: f3 03 00 aa 	mov	x19, x0
100002cd4: 08 20 00 91 	add	x8, x0, #8
100002cd8: 08 10 00 f9 	str	x8, [x0, #32]
100002cdc: 15 04 40 f9 	ldr	x21, [x0, #8]
100002ce0: e0 03 15 aa 	mov	x0, x21
100002ce4: 20 03 00 94 	bl	0x100003964 <_strlen+0x100003964>
100002ce8: 1f 40 00 b1 	cmn	x0, #16
100002cec: 22 05 00 54 	b.hs	0x100002d90 <__ZN9sequences16virtual_sequenceINSt3__112basic_stringIcNS1_11char_traitsIcEENS1_9allocatorIcEEEENS_15select_sequenceIPKcNS_21stored_array_sequenceISA_Li3EEEZNKS_13base_sequenceISA_SC_E2asIS7_EEDavEUlRKSA_E_EEE5firstEv+0xd8>
100002cf0: f4 03 00 aa 	mov	x20, x0
100002cf4: 1f 5c 00 f1 	cmp	x0, #23
100002cf8: 62 02 00 54 	b.hs	0x100002d44 <__ZN9sequences16virtual_sequenceINSt3__112basic_stringIcNS1_11char_traitsIcEENS1_9allocatorIcEEEENS_15select_sequenceIPKcNS_21stored_array_sequenceISA_Li3EEEZNKS_13base_sequenceISA_SC_E2asIS7_EEDavEUlRKSA_E_EEE5firstEv+0x8c>
100002cfc: f6 23 00 91 	add	x22, sp, #8
100002d00: f4 7f 00 39 	strb	w20, [sp, #31]
100002d04: 14 03 00 b5 	cbnz	x20, 0x100002d64 <__ZN9sequences16virtual_sequenceINSt3__112basic_stringIcNS1_11char_traitsIcEENS1_9allocatorIcEEEENS_15select_sequenceIPKcNS_21stored_array_sequenceISA_Li3EEEZNKS_13base_sequenceISA_SC_E2asIS7_EEDavEUlRKSA_E_EEE5firstEv+0xac>
100002d08: df 6a 34 38 	strb	wzr, [x22, x20]
100002d0c: 74 c2 00 91 	add	x20, x19, #48
100002d10: 68 1e c1 39 	ldrsb	w8, [x19, #71]
100002d14: 88 03 f8 37 	tbnz	w8, #31, 0x100002d84 <__ZN9sequences16virtual_sequenceINSt3__112basic_stringIcNS1_11char_traitsIcEENS1_9allocatorIcEEEENS_15select_sequenceIPKcNS_21stored_array_sequenceISA_Li3EEEZNKS_13base_sequenceISA_SC_E2asIS7_EEDavEUlRKSA_E_EEE5firstEv+0xcc>
100002d18: e0 83 c0 3c 	ldur	q0, [sp, #8]
100002d1c: 80 02 80 3d 	str	q0, [x20]
100002d20: e8 0f 40 f9 	ldr	x8, [sp, #24]
100002d24: 88 0a 00 f9 	str	x8, [x20, #16]
100002d28: e0 03 14 aa 	mov	x0, x20
100002d2c: fd 7b 45 a9 	ldp	x29, x30, [sp, #80]
100002d30: f4 4f 44 a9 	ldp	x20, x19, [sp, #64]
100002d34: f6 57 43 a9 	ldp	x22, x21, [sp, #48]
100002d38: f8 5f 42 a9 	ldp	x24, x23, [sp, #32]
100002d3c: ff 83 01 91 	add	sp, sp, #96
100002d40: c0 03 5f d6 	ret
100002d44: 88 42 00 91 	add	x8, x20, #16
100002d48: 17 ed 7c 92 	and	x23, x8, #0xfffffffffffffff0
100002d4c: e0 03 17 aa 	mov	x0, x23
100002d50: ea 02 00 94 	bl	0x1000038f8 <_strlen+0x1000038f8>
100002d54: f6 03 00 aa 	mov	x22, x0
100002d58: e8 02 41 b2 	orr	x8, x23, #0x8000000000000000
100002d5c: f4 23 01 a9 	stp	x20, x8, [sp, #16]
100002d60: e0 07 00 f9 	str	x0, [sp, #8]
100002d64: e0 03 16 aa 	mov	x0, x22
100002d68: e1 03 15 aa 	mov	x1, x21
100002d6c: e2 03 14 aa 	mov	x2, x20
100002d70: f7 02 00 94 	bl	0x10000394c <_strlen+0x10000394c>
100002d74: df 6a 34 38 	strb	wzr, [x22, x20]
100002d78: 74 c2 00 91 	add	x20, x19, #48
100002d7c: 68 1e c1 39 	ldrsb	w8, [x19, #71]
100002d80: c8 fc ff 36 	tbz	w8, #31, 0x100002d18 <__ZN9sequences16virtual_sequenceINSt3__112basic_stringIcNS1_11char_traitsIcEENS1_9allocatorIcEEEENS_15select_sequenceIPKcNS_21stored_array_sequenceISA_Li3EEEZNKS_13base_sequenceISA_SC_E2asIS7_EEDavEUlRKSA_E_EEE5firstEv+0x60>
100002d84: 80 02 40 f9 	ldr	x0, [x20]
100002d88: d9 02 00 94 	bl	0x1000038ec <_strlen+0x1000038ec>
100002d8c: e3 ff ff 17 	b	0x100002d18 <__ZN9sequences16virtual_sequenceINSt3__112basic_stringIcNS1_11char_traitsIcEENS1_9allocatorIcEEEENS_15select_sequenceIPKcNS_21stored_array_sequenceISA_Li3EEEZNKS_13base_sequenceISA_SC_E2asIS7_EEDavEUlRKSA_E_EEE5firstEv+0x60>
100002d90: e0 23 00 91 	add	x0, sp, #8
100002d94: f8 00 00 94 	bl	0x100003174 <__ZNKSt3__112basic_stringIcNS_11char_traitsIcEENS_9allocatorIcEEE20__throw_length_errorEv>

0000000100002d98 <__ZN9sequences16virtual_sequenceINSt3__112basic_stringIcNS1_11char_traitsIcEENS1_9allocatorIcEEEENS_15select_sequenceIPKcNS_21stored_array_sequenceISA_Li3EEEZNKS_13base_sequenceISA_SC_E2asIS7_EEDavEUlRKSA_E_EEE4nextEv>:
100002d98: ff 83 01 d1 	sub	sp, sp, #96
100002d9c: f8 5f 02 a9 	stp	x24, x23, [sp, #32]
100002da0: f6 57 03 a9 	stp	x22, x21, [sp, #48]
100002da4: f4 4f 04 a9 	stp	x20, x19, [sp, #64]
100002da8: fd 7b 05 a9 	stp	x29, x30, [sp, #80]
100002dac: fd 43 01 91 	add	x29, sp, #80
100002db0: e9 03 00 aa 	mov	x9, x0
100002db4: 28 0d 42 f8 	ldr	x8, [x9, #32]!
100002db8: 08 21 00 91 	add	x8, x8, #8
100002dbc: 28 01 00 f9 	str	x8, [x9]
100002dc0: 1f 01 09 eb 	cmp	x8, x9
100002dc4: c0 02 00 54 	b.eq	0x100002e1c <__ZN9sequences16virtual_sequenceINSt3__112basic_stringIcNS1_11char_traitsIcEENS1_9allocatorIcEEEENS_15select_sequenceIPKcNS_21stored_array_sequenceISA_Li3EEEZNKS_13base_sequenceISA_SC_E2asIS7_EEDavEUlRKSA_E_EEE4nextEv+0x84>
100002dc8: f3 03 00 aa 	mov	x19, x0
100002dcc: 15 01 40 f9 	ldr	x21, [x8]
100002dd0: e0 03 15 aa 	mov	x0, x21
100002dd4: e4 02 00 94 	bl	0x100003964 <_strlen+0x100003964>
100002dd8: 1f 40 00 b1 	cmn	x0, #16
100002ddc: 62 05 00 54 	b.hs	0x100002e88 <__ZN9sequences16virtual_sequenceINSt3__112basic_stringIcNS1_11char_traitsIcEENS1_9allocatorIcEEEENS_15select_sequenceIPKcNS_21stored_array_sequenceISA_Li3EEEZNKS_13base_sequenceISA_SC_E2asIS7_EEDavEUlRKSA_E_EEE4nextEv+0xf0>
100002de0: f4 03 00 aa 	mov	x20, x0
100002de4: 1f 5c 00 f1 	cmp	x0, #23
100002de8: a2 02 00 54 	b.hs	0x100002e3c <__ZN9sequences16virtual_sequenceINSt3__112basic_stringIcNS1_11char_traitsIcEENS1_9allocatorIcEEEENS_15select_sequenceIPKcNS_21stored_array_sequenceISA_Li3EEEZNKS_13base_sequenceISA_SC_E2asIS7_EEDavEUlRKSA_E_EEE4nextEv+0xa4>
100002dec: f6 23 00 91 	add	x22, sp, #8
100002df0: f4 7f 00 39 	strb	w20, [sp, #31]
100002df4: 54 03 00 b5 	cbnz	x20, 0x100002e5c <__ZN9sequences16virtual_sequenceINSt3__112basic_stringIcNS1_11char_traitsIcEENS1_9allocatorIcEEEENS_15select_sequenceIPKcNS_21stored_array_sequenceISA_Li3EEEZNKS_13base_sequenceISA_SC_E2asIS7_EEDavEUlRKSA_E_EEE4nextEv+0xc4>
100002df8: df 6a 34 38 	strb	wzr, [x22, x20]
100002dfc: 74 c2 00 91 	add	x20, x19, #48
100002e00: 68 1e c1 39 	ldrsb	w8, [x19, #71]
100002e04: c8 03 f8 37 	tbnz	w8, #31, 0x100002e7c <__ZN9sequences16virtual_sequenceINSt3__112basic_stringIcNS1_11char_traitsIcEENS1_9allocatorIcEEEENS_15select_sequenceIPKcNS_21stored_array_sequenceISA_Li3EEEZNKS_13base_sequenceISA_SC_E2asIS7_EEDavEUlRKSA_E_EEE4nextEv+0xe4>
100002e08: e0 83 c0 3c 	ldur	q0, [sp, #8]
100002e0c: 80 02 80 3d 	str	q0, [x20]
100002e10: e8 0f 40 f9 	ldr	x8, [sp, #24]
100002e14: 88 0a 00 f9 	str	x8, [x20, #16]
100002e18: 02 00 00 14 	b	0x100002e20 <__ZN9sequences16virtual_sequenceINSt3__112basic_stringIcNS1_11char_traitsIcEENS1_9allocatorIcEEEENS_15select_sequenceIPKcNS_21stored_array_sequenceISA_Li3EEEZNKS_13base_sequenceISA_SC_E2asIS7_EEDavEUlRKSA_E_EEE4nextEv+0x88>
100002e1c: 14 00 80 d2 	mov	x20, #0
100002e20: e0 03 14 aa 	mov	x0, x20
100002e24: fd 7b 45 a9 	ldp	x29, x30, [sp, #80]
100002e28: f4 4f 44 a9 	ldp	x20, x19, [sp, #64]
100002e2c: f6 57 43 a9 	ldp	x22, x21, [sp, #48]
100002e30: f8 5f 42 a9 	ldp	x24, x23, [sp, #32]
100002e34: ff 83 01 91 	add	sp, sp, #96
100002e38: c0 03 5f d6 	ret
100002e3c: 88 42 00 91 	add	x8, x20, #16
100002e40: 17 ed 7c 92 	and	x23, x8, #0xfffffffffffffff0
100002e44: e0 03 17 aa 	mov	x0, x23
100002e48: ac 02 00 94 	bl	0x1000038f8 <_strlen+0x1000038f8>
100002e4c: f6 03 00 aa 	mov	x22, x0
100002e50: e8 02 41 b2 	orr	x8, x23, #0x8000000000000000
100002e54: f4 23 01 a9 	stp	x20, x8, [sp, #16]
100002e58: e0 07 00 f9 	str	x0, [sp, #8]
100002e5c: e0 03 16 aa 	mov	x0, x22
100002e60: e1 03 15 aa 	mov	x1, x21
100002e64: e2 03 14 aa 	mov	x2, x20
100002e68: b9 02 00 94 	bl	0x10000394c <_strlen+0x10000394c>
100002e6c: df 6a 34 38 	strb	wzr, [x22, x20]
100002e70: 74 c2 00 91 	add	x20, x19, #48
100002e74: 68 1e c1 39 	ldrsb	w8, [x19, #71]
100002e78: 88 fc ff 36 	tbz	w8, #31, 0x100002e08 <__ZN9sequences16virtual_sequenceINSt3__112basic_stringIcNS1_11char_traitsIcEENS1_9allocatorIcEEEENS_15select_sequenceIPKcNS_21stored_array_sequenceISA_Li3EEEZNKS_13base_sequenceISA_SC_E2asIS7_EEDavEUlRKSA_E_EEE4nextEv+0x70>
100002e7c: 80 02 40 f9 	ldr	x0, [x20]
100002e80: 9b 02 00 94 	bl	0x1000038ec <_strlen+0x1000038ec>
100002e84: e1 ff ff 17 	b	0x100002e08 <__ZN9sequences16virtual_sequenceINSt3__112basic_stringIcNS1_11char_traitsIcEENS1_9allocatorIcEEEENS_15select_sequenceIPKcNS_21stored_array_sequenceISA_Li3EEEZNKS_13base_sequenceISA_SC_E2asIS7_EEDavEUlRKSA_E_EEE4nextEv+0x70>
100002e88: e0 23 00 91 	add	x0, sp, #8
100002e8c: ba 00 00 94 	bl	0x100003174 <__ZNKSt3__112basic_stringIcNS_11char_traitsIcEENS_9allocatorIcEEE20__throw_length_errorEv>

0000000100002e90 <__ZNSt3__124__put_character_sequenceIcNS_11char_traitsIcEEEERNS_13basic_ostreamIT_T0_EES7_PKS4_m>:
100002e90: ff c3 01 d1 	sub	sp, sp, #112
100002e94: fa 67 02 a9 	stp	x26, x25, [sp, #32]
100002e98: f8 5f 03 a9 	stp	x24, x23, [sp, #48]
100002e9c: f6 57 04 a9 	stp	x22, x21, [sp, #64]
100002ea0: f4 4f 05 a9 	stp	x20, x19, [sp, #80]
100002ea4: fd 7b 06 a9 	stp	x29, x30, [sp, #96]
100002ea8: fd 83 01 91 	add	x29, sp, #96
100002eac: f5 03 02 aa 	mov	x21, x2
100002eb0: f4 03 01 aa 	mov	x20, x1
100002eb4: f3 03 00 aa 	mov	x19, x0
100002eb8: e0 23 00 91 	add	x0, sp, #8
100002ebc: e1 03 13 aa 	mov	x1, x19
100002ec0: 70 02 00 94 	bl	0x100003880 <_strlen+0x100003880>
100002ec4: e8 23 40 39 	ldrb	w8, [sp, #8]
100002ec8: 48 05 00 34 	cbz	w8, 0x100002f70 <__ZNSt3__124__put_character_sequenceIcNS_11char_traitsIcEEEERNS_13basic_ostreamIT_T0_EES7_PKS4_m+0xe0>
100002ecc: 68 02 40 f9 	ldr	x8, [x19]
100002ed0: 08 81 5e f8 	ldur	x8, [x8, #-24]
100002ed4: 76 02 08 8b 	add	x22, x19, x8
100002ed8: d7 16 40 f9 	ldr	x23, [x22, #40]
100002edc: d9 0a 40 b9 	ldr	w25, [x22, #8]
100002ee0: d8 92 40 b9 	ldr	w24, [x22, #144]
100002ee4: 1f 07 00 31 	cmn	w24, #1
100002ee8: 01 02 00 54 	b.ne	0x100002f28 <__ZNSt3__124__put_character_sequenceIcNS_11char_traitsIcEEEERNS_13basic_ostreamIT_T0_EES7_PKS4_m+0x98>
100002eec: e8 63 00 91 	add	x8, sp, #24
100002ef0: e0 03 16 aa 	mov	x0, x22
100002ef4: 51 02 00 94 	bl	0x100003838 <_strlen+0x100003838>
100002ef8: 1f 20 03 d5 	nop
100002efc: 21 8c 00 58 	ldr	x1, 0x100004080 <_strlen+0x100004080>
100002f00: e0 63 00 91 	add	x0, sp, #24
100002f04: 4a 02 00 94 	bl	0x10000382c <_strlen+0x10000382c>
100002f08: 08 00 40 f9 	ldr	x8, [x0]
100002f0c: 08 1d 40 f9 	ldr	x8, [x8, #56]
100002f10: 01 04 80 52 	mov	w1, #32
100002f14: 00 01 3f d6 	blr	x8
100002f18: f8 03 00 aa 	mov	x24, x0
100002f1c: e0 63 00 91 	add	x0, sp, #24
100002f20: 67 02 00 94 	bl	0x1000038bc <_strlen+0x1000038bc>
100002f24: d8 92 00 b9 	str	w24, [x22, #144]
100002f28: 83 02 15 8b 	add	x3, x20, x21
100002f2c: 08 16 80 52 	mov	w8, #176
100002f30: 28 03 08 0a 	and	w8, w25, w8
100002f34: 1f 81 00 71 	cmp	w8, #32
100002f38: 62 00 94 9a 	csel	x2, x3, x20, eq
100002f3c: 05 1f 00 13 	sxtb	w5, w24
100002f40: e0 03 17 aa 	mov	x0, x23
100002f44: e1 03 14 aa 	mov	x1, x20
100002f48: e4 03 16 aa 	mov	x4, x22
100002f4c: 2a 00 00 94 	bl	0x100002ff4 <__ZNSt3__116__pad_and_outputIcNS_11char_traitsIcEEEENS_19ostreambuf_iteratorIT_T0_EES6_PKS4_S8_S8_RNS_8ios_baseES4_>
100002f50: 00 01 00 b5 	cbnz	x0, 0x100002f70 <__ZNSt3__124__put_character_sequenceIcNS_11char_traitsIcEEEERNS_13basic_ostreamIT_T0_EES7_PKS4_m+0xe0>
100002f54: 68 02 40 f9 	ldr	x8, [x19]
100002f58: 08 81 5e f8 	ldur	x8, [x8, #-24]
100002f5c: 60 02 08 8b 	add	x0, x19, x8
100002f60: 08 20 40 b9 	ldr	w8, [x0, #32]
100002f64: a9 00 80 52 	mov	w9, #5
100002f68: 01 01 09 2a 	orr	w1, w8, w9
100002f6c: 5a 02 00 94 	bl	0x1000038d4 <_strlen+0x1000038d4>
100002f70: e0 23 00 91 	add	x0, sp, #8
100002f74: 46 02 00 94 	bl	0x10000388c <_strlen+0x10000388c>
100002f78: e0 03 13 aa 	mov	x0, x19
100002f7c: fd 7b 46 a9 	ldp	x29, x30, [sp, #96]
100002f80: f4 4f 45 a9 	ldp	x20, x19, [sp, #80]
100002f84: f6 57 44 a9 	ldp	x22, x21, [sp, #64]
100002f88: f8 5f 43 a9 	ldp	x24, x23, [sp, #48]
100002f8c: fa 67 42 a9 	ldp	x26, x25, [sp, #32]
100002f90: ff c3 01 91 	add	sp, sp, #112
100002f94: c0 03 5f d6 	ret
100002f98: 05 00 00 14 	b	0x100002fac <__ZNSt3__124__put_character_sequenceIcNS_11char_traitsIcEEEERNS_13basic_ostreamIT_T0_EES7_PKS4_m+0x11c>
100002f9c: f4 03 00 aa 	mov	x20, x0
100002fa0: e0 63 00 91 	add	x0, sp, #24
100002fa4: 46 02 00 94 	bl	0x1000038bc <_strlen+0x1000038bc>
100002fa8: 02 00 00 14 	b	0x100002fb0 <__ZNSt3__124__put_character_sequenceIcNS_11char_traitsIcEEEERNS_13basic_ostreamIT_T0_EES7_PKS4_m+0x120>
100002fac: f4 03 00 aa 	mov	x20, x0
100002fb0: e0 23 00 91 	add	x0, sp, #8
100002fb4: 36 02 00 94 	bl	0x10000388c <_strlen+0x10000388c>
100002fb8: 02 00 00 14 	b	0x100002fc0 <__ZNSt3__124__put_character_sequenceIcNS_11char_traitsIcEEEERNS_13basic_ostreamIT_T0_EES7_PKS4_m+0x130>
100002fbc: f4 03 00 aa 	mov	x20, x0
100002fc0: e0 03 14 aa 	mov	x0, x20
100002fc4: 56 02 00 94 	bl	0x10000391c <_strlen+0x10000391c>
100002fc8: 68 02 40 f9 	ldr	x8, [x19]
100002fcc: 08 81 5e f8 	ldur	x8, [x8, #-24]
100002fd0: 60 02 08 8b 	add	x0, x19, x8
100002fd4: 3d 02 00 94 	bl	0x1000038c8 <_strlen+0x1000038c8>
100002fd8: 54 02 00 94 	bl	0x100003928 <_strlen+0x100003928>
100002fdc: e7 ff ff 17 	b	0x100002f78 <__ZNSt3__124__put_character_sequenceIcNS_11char_traitsIcEEEERNS_13basic_ostreamIT_T0_EES7_PKS4_m+0xe8>
100002fe0: f3 03 00 aa 	mov	x19, x0
100002fe4: 51 02 00 94 	bl	0x100003928 <_strlen+0x100003928>
100002fe8: e0 03 13 aa 	mov	x0, x19
100002fec: 07 02 00 94 	bl	0x100003808 <_strlen+0x100003808>
100002ff0: 2f ff ff 97 	bl	0x100002cac <___clang_call_terminate>

0000000100002ff4 <__ZNSt3__116__pad_and_outputIcNS_11char_traitsIcEEEENS_19ostreambuf_iteratorIT_T0_EES6_PKS4_S8_S8_RNS_8ios_baseES4_>:
100002ff4: ff c3 01 d1 	sub	sp, sp, #112
100002ff8: fa 67 02 a9 	stp	x26, x25, [sp, #32]
100002ffc: f8 5f 03 a9 	stp	x24, x23, [sp, #48]
100003000: f6 57 04 a9 	stp	x22, x21, [sp, #64]
100003004: f4 4f 05 a9 	stp	x20, x19, [sp, #80]
100003008: fd 7b 06 a9 	stp	x29, x30, [sp, #96]
10000300c: fd 83 01 91 	add	x29, sp, #96
100003010: f3 03 00 aa 	mov	x19, x0
100003014: 20 09 00 b4 	cbz	x0, 0x100003138 <__ZNSt3__116__pad_and_outputIcNS_11char_traitsIcEEEENS_19ostreambuf_iteratorIT_T0_EES6_PKS4_S8_S8_RNS_8ios_baseES4_+0x144>
100003018: f8 03 05 aa 	mov	x24, x5
10000301c: f4 03 04 aa 	mov	x20, x4
100003020: f6 03 03 aa 	mov	x22, x3
100003024: f5 03 02 aa 	mov	x21, x2
100003028: 88 0c 40 f9 	ldr	x8, [x4, #24]
10000302c: 69 00 01 cb 	sub	x9, x3, x1
100003030: 08 01 09 eb 	subs	x8, x8, x9
100003034: 17 c1 9f 9a 	csel	x23, x8, xzr, gt
100003038: 59 00 01 cb 	sub	x25, x2, x1
10000303c: 3f 07 00 f1 	cmp	x25, #1
100003040: 0b 01 00 54 	b.lt	0x100003060 <__ZNSt3__116__pad_and_outputIcNS_11char_traitsIcEEEENS_19ostreambuf_iteratorIT_T0_EES6_PKS4_S8_S8_RNS_8ios_baseES4_+0x6c>
100003044: 68 02 40 f9 	ldr	x8, [x19]
100003048: 08 31 40 f9 	ldr	x8, [x8, #96]
10000304c: e0 03 13 aa 	mov	x0, x19
100003050: e2 03 19 aa 	mov	x2, x25
100003054: 00 01 3f d6 	blr	x8
100003058: 1f 00 19 eb 	cmp	x0, x25
10000305c: c1 06 00 54 	b.ne	0x100003134 <__ZNSt3__116__pad_and_outputIcNS_11char_traitsIcEEEENS_19ostreambuf_iteratorIT_T0_EES6_PKS4_S8_S8_RNS_8ios_baseES4_+0x140>
100003060: ff 06 00 f1 	cmp	x23, #1
100003064: eb 04 00 54 	b.lt	0x100003100 <__ZNSt3__116__pad_and_outputIcNS_11char_traitsIcEEEENS_19ostreambuf_iteratorIT_T0_EES6_PKS4_S8_S8_RNS_8ios_baseES4_+0x10c>
100003068: ff 5e 00 f1 	cmp	x23, #23
10000306c: 82 00 00 54 	b.hs	0x10000307c <__ZNSt3__116__pad_and_outputIcNS_11char_traitsIcEEEENS_19ostreambuf_iteratorIT_T0_EES6_PKS4_S8_S8_RNS_8ios_baseES4_+0x88>
100003070: f9 23 00 91 	add	x25, sp, #8
100003074: f7 7f 00 39 	strb	w23, [sp, #31]
100003078: 09 00 00 14 	b	0x10000309c <__ZNSt3__116__pad_and_outputIcNS_11char_traitsIcEEEENS_19ostreambuf_iteratorIT_T0_EES6_PKS4_S8_S8_RNS_8ios_baseES4_+0xa8>
10000307c: e8 42 00 91 	add	x8, x23, #16
100003080: 1a ed 7c 92 	and	x26, x8, #0xfffffffffffffff0
100003084: e0 03 1a aa 	mov	x0, x26
100003088: 1c 02 00 94 	bl	0x1000038f8 <_strlen+0x1000038f8>
10000308c: f9 03 00 aa 	mov	x25, x0
100003090: 48 03 41 b2 	orr	x8, x26, #0x8000000000000000
100003094: f7 23 01 a9 	stp	x23, x8, [sp, #16]
100003098: e0 07 00 f9 	str	x0, [sp, #8]
10000309c: e0 03 19 aa 	mov	x0, x25
1000030a0: e1 03 18 aa 	mov	x1, x24
1000030a4: e2 03 17 aa 	mov	x2, x23
1000030a8: 2c 02 00 94 	bl	0x100003958 <_strlen+0x100003958>
1000030ac: 3f 6b 37 38 	strb	wzr, [x25, x23]
1000030b0: e8 7f c0 39 	ldrsb	w8, [sp, #31]
1000030b4: e9 07 40 f9 	ldr	x9, [sp, #8]
1000030b8: 1f 01 00 71 	cmp	w8, #0
1000030bc: e8 23 00 91 	add	x8, sp, #8
1000030c0: 21 b1 88 9a 	csel	x1, x9, x8, lt
1000030c4: 68 02 40 f9 	ldr	x8, [x19]
1000030c8: 08 31 40 f9 	ldr	x8, [x8, #96]
1000030cc: e0 03 13 aa 	mov	x0, x19
1000030d0: e2 03 17 aa 	mov	x2, x23
1000030d4: 00 01 3f d6 	blr	x8
1000030d8: f8 03 00 aa 	mov	x24, x0
1000030dc: e8 7f c0 39 	ldrsb	w8, [sp, #31]
1000030e0: 88 00 f8 37 	tbnz	w8, #31, 0x1000030f0 <__ZNSt3__116__pad_and_outputIcNS_11char_traitsIcEEEENS_19ostreambuf_iteratorIT_T0_EES6_PKS4_S8_S8_RNS_8ios_baseES4_+0xfc>
1000030e4: 1f 03 17 eb 	cmp	x24, x23
1000030e8: 61 02 00 54 	b.ne	0x100003134 <__ZNSt3__116__pad_and_outputIcNS_11char_traitsIcEEEENS_19ostreambuf_iteratorIT_T0_EES6_PKS4_S8_S8_RNS_8ios_baseES4_+0x140>
1000030ec: 05 00 00 14 	b	0x100003100 <__ZNSt3__116__pad_and_outputIcNS_11char_traitsIcEEEENS_19ostreambuf_iteratorIT_T0_EES6_PKS4_S8_S8_RNS_8ios_baseES4_+0x10c>
1000030f0: e0 07 40 f9 	ldr	x0, [sp, #8]
1000030f4: fe 01 00 94 	bl	0x1000038ec <_strlen+0x1000038ec>
1000030f8: 1f 03 17 eb 	cmp	x24, x23
1000030fc: c1 01 00 54 	b.ne	0x100003134 <__ZNSt3__116__pad_and_outputIcNS_11char_traitsIcEEEENS_19ostreambuf_iteratorIT_T0_EES6_PKS4_S8_S8_RNS_8ios_baseES4_+0x140>
100003100: d6 02 15 cb 	sub	x22, x22, x21
100003104: df 06 00 f1 	cmp	x22, #1
100003108: 2b 01 00 54 	b.lt	0x10000312c <__ZNSt3__116__pad_and_outputIcNS_11char_traitsIcEEEENS_19ostreambuf_iteratorIT_T0_EES6_PKS4_S8_S8_RNS_8ios_baseES4_+0x138>
10000310c: 68 02 40 f9 	ldr	x8, [x19]
100003110: 08 31 40 f9 	ldr	x8, [x8, #96]
100003114: e0 03 13 aa 	mov	x0, x19
100003118: e1 03 15 aa 	mov	x1, x21
10000311c: e2 03 16 aa 	mov	x2, x22
100003120: 00 01 3f d6 	blr	x8
100003124: 1f 00 16 eb 	cmp	x0, x22
100003128: 61 00 00 54 	b.ne	0x100003134 <__ZNSt3__116__pad_and_outputIcNS_11char_traitsIcEEEENS_19ostreambuf_iteratorIT_T0_EES6_PKS4_S8_S8_RNS_8ios_baseES4_+0x140>
10000312c: 9f 0e 00 f9 	str	xzr, [x20, #24]
100003130: 02 00 00 14 	b	0x100003138 <__ZNSt3__116__pad_and_outputIcNS_11char_traitsIcEEEENS_19ostreambuf_iteratorIT_T0_EES6_PKS4_S8_S8_RNS_8ios_baseES4_+0x144>
100003134: 13 00 80 d2 	mov	x19, #0
100003138: e0 03 13 aa 	mov	x0, x19
10000313c: fd 7b 46 a9 	ldp	x29, x30, [sp, #96]
100003140: f4 4f 45 a9 	ldp	x20, x19, [sp, #80]
100003144: f6 57 44 a9 	ldp	x22, x21, [sp, #64]
100003148: f8 5f 43 a9 	ldp	x24, x23, [sp, #48]
10000314c: fa 67 42 a9 	ldp	x26, x25, [sp, #32]
100003150: ff c3 01 91 	add	sp, sp, #112
100003154: c0 03 5f d6 	ret
100003158: f3 03 00 aa 	mov	x19, x0
10000315c: e8 7f c0 39 	ldrsb	w8, [sp, #31]
100003160: 68 00 f8 36 	tbz	w8, #31, 0x10000316c <__ZNSt3__116__pad_and_outputIcNS_11char_traitsIcEEEENS_19ostreambuf_iteratorIT_T0_EES6_PKS4_S8_S8_RNS_8ios_baseES4_+0x178>
100003164: e0 07 40 f9 	ldr	x0, [sp, #8]
100003168: e1 01 00 94 	bl	0x1000038ec <_strlen+0x1000038ec>
10000316c: e0 03 13 aa 	mov	x0, x19
100003170: a6 01 00 94 	bl	0x100003808 <_strlen+0x100003808>

0000000100003174 <__ZNKSt3__112basic_stringIcNS_11char_traitsIcEENS_9allocatorIcEEE20__throw_length_errorEv>:
100003174: fd 7b bf a9 	stp	x29, x30, [sp, #-16]!
100003178: fd 03 00 91 	mov	x29, sp
10000317c: a9 01 00 94 	bl	0x100003820 <_strlen+0x100003820>

0000000100003180 <__ZNSt3__1L20__throw_length_errorEPKc>:
100003180: f4 4f be a9 	stp	x20, x19, [sp, #-32]!
100003184: fd 7b 01 a9 	stp	x29, x30, [sp, #16]
100003188: fd 43 00 91 	add	x29, sp, #16
10000318c: 00 02 80 52 	mov	w0, #16
100003190: e0 01 00 94 	bl	0x100003910 <_strlen+0x100003910>
100003194: f3 03 00 aa 	mov	x19, x0
100003198: 0c 00 00 94 	bl	0x1000031c8 <__ZNSt12length_errorC1EPKc>
10000319c: 1f 20 03 d5 	nop
1000031a0: 81 78 00 58 	ldr	x1, 0x1000040b0 <_strlen+0x1000040b0>
1000031a4: 1f 20 03 d5 	nop
1000031a8: 42 74 00 58 	ldr	x2, 0x100004030 <_strlen+0x100004030>
1000031ac: e0 03 13 aa 	mov	x0, x19
1000031b0: e4 01 00 94 	bl	0x100003940 <_strlen+0x100003940>
1000031b4: f4 03 00 aa 	mov	x20, x0
1000031b8: e0 03 13 aa 	mov	x0, x19
1000031bc: de 01 00 94 	bl	0x100003934 <_strlen+0x100003934>
1000031c0: e0 03 14 aa 	mov	x0, x20
1000031c4: 91 01 00 94 	bl	0x100003808 <_strlen+0x100003808>

00000001000031c8 <__ZNSt12length_errorC1EPKc>:
1000031c8: fd 7b bf a9 	stp	x29, x30, [sp, #-16]!
1000031cc: fd 03 00 91 	mov	x29, sp
1000031d0: 81 66 00 70 	adr	x1, #3283
1000031d4: 1f 20 03 d5 	nop
1000031d8: 9b 01 00 94 	bl	0x100003844 <_strlen+0x100003844>
1000031dc: 1f 20 03 d5 	nop
1000031e0: 88 77 00 58 	ldr	x8, 0x1000040d0 <_strlen+0x1000040d0>
1000031e4: 08 41 00 91 	add	x8, x8, #16
1000031e8: 08 00 00 f9 	str	x8, [x0]
1000031ec: fd 7b c1 a8 	ldp	x29, x30, [sp], #16
1000031f0: c0 03 5f d6 	ret

00000001000031f4 <__ZN9sequences16virtual_sequenceIiNS_21stored_array_sequenceIiLi3EEEE5firstEv>:
1000031f4: 08 20 00 91 	add	x8, x0, #8
1000031f8: 08 0c 00 f9 	str	x8, [x0, #24]
1000031fc: e0 03 08 aa 	mov	x0, x8
100003200: c0 03 5f d6 	ret

0000000100003204 <__ZN9sequences16virtual_sequenceIiNS_21stored_array_sequenceIiLi3EEEE4nextEv>:
100003204: 08 0c 40 f9 	ldr	x8, [x0, #24]
100003208: 08 11 00 91 	add	x8, x8, #4
10000320c: 08 0c 00 f9 	str	x8, [x0, #24]
100003210: 09 50 00 91 	add	x9, x0, #20
100003214: 1f 01 09 eb 	cmp	x8, x9
100003218: e0 03 88 9a 	csel	x0, xzr, x8, eq
10000321c: c0 03 5f d6 	ret

0000000100003220 <__ZN9sequences21stored_array_sequenceINSt3__112basic_stringIcNS1_11char_traitsIcEENS1_9allocatorIcEEEELi3EEC2IJS7_PKcSB_EEEDpT_>:
100003220: ff 43 01 d1 	sub	sp, sp, #80
100003224: f6 57 02 a9 	stp	x22, x21, [sp, #32]
100003228: f4 4f 03 a9 	stp	x20, x19, [sp, #48]
10000322c: fd 7b 04 a9 	stp	x29, x30, [sp, #64]
100003230: fd 03 01 91 	add	x29, sp, #64
100003234: f4 03 03 aa 	mov	x20, x3
100003238: f5 03 02 aa 	mov	x21, x2
10000323c: f3 03 00 aa 	mov	x19, x0
100003240: 1f 20 00 f9 	str	xzr, [x0, #64]
100003244: 00 e4 00 6f 	movi.2d	v0, #0000000000000000
100003248: 00 00 01 ad 	stp	q0, q0, [x0, #32]
10000324c: 00 00 00 ad 	stp	q0, q0, [x0]
100003250: e0 23 00 91 	add	x0, sp, #8
100003254: 7f 01 00 94 	bl	0x100003850 <_strlen+0x100003850>
100003258: e2 23 00 91 	add	x2, sp, #8
10000325c: e0 03 13 aa 	mov	x0, x19
100003260: 01 00 80 52 	mov	w1, #0
100003264: e3 03 15 aa 	mov	x3, x21
100003268: e4 03 14 aa 	mov	x4, x20
10000326c: 30 00 00 94 	bl	0x10000332c <__ZN9sequences21stored_array_sequenceINSt3__112basic_stringIcNS1_11char_traitsIcEENS1_9allocatorIcEEEELi3EE4initIJPKcSB_EEEviS7_DpT_>
100003270: e8 7f c0 39 	ldrsb	w8, [sp, #31]
100003274: e8 00 f8 37 	tbnz	w8, #31, 0x100003290 <__ZN9sequences21stored_array_sequenceINSt3__112basic_stringIcNS1_11char_traitsIcEENS1_9allocatorIcEEEELi3EEC2IJS7_PKcSB_EEEDpT_+0x70>
100003278: e0 03 13 aa 	mov	x0, x19
10000327c: fd 7b 44 a9 	ldp	x29, x30, [sp, #64]
100003280: f4 4f 43 a9 	ldp	x20, x19, [sp, #48]
100003284: f6 57 42 a9 	ldp	x22, x21, [sp, #32]
100003288: ff 43 01 91 	add	sp, sp, #80
10000328c: c0 03 5f d6 	ret
100003290: e0 07 40 f9 	ldr	x0, [sp, #8]
100003294: 96 01 00 94 	bl	0x1000038ec <_strlen+0x1000038ec>
100003298: e0 03 13 aa 	mov	x0, x19
10000329c: fd 7b 44 a9 	ldp	x29, x30, [sp, #64]
1000032a0: f4 4f 43 a9 	ldp	x20, x19, [sp, #48]
1000032a4: f6 57 42 a9 	ldp	x22, x21, [sp, #32]
1000032a8: ff 43 01 91 	add	sp, sp, #80
1000032ac: c0 03 5f d6 	ret
1000032b0: f4 03 00 aa 	mov	x20, x0
1000032b4: e8 7f c0 39 	ldrsb	w8, [sp, #31]
1000032b8: 28 01 f8 37 	tbnz	w8, #31, 0x1000032dc <__ZN9sequences21stored_array_sequenceINSt3__112basic_stringIcNS1_11char_traitsIcEENS1_9allocatorIcEEEELi3EEC2IJS7_PKcSB_EEEDpT_+0xbc>
1000032bc: 68 1e c1 39 	ldrsb	w8, [x19, #71]
1000032c0: e8 01 f8 37 	tbnz	w8, #31, 0x1000032fc <__ZN9sequences21stored_array_sequenceINSt3__112basic_stringIcNS1_11char_traitsIcEENS1_9allocatorIcEEEELi3EEC2IJS7_PKcSB_EEEDpT_+0xdc>
1000032c4: 68 be c0 39 	ldrsb	w8, [x19, #47]
1000032c8: 28 02 f8 37 	tbnz	w8, #31, 0x10000330c <__ZN9sequences21stored_array_sequenceINSt3__112basic_stringIcNS1_11char_traitsIcEENS1_9allocatorIcEEEELi3EEC2IJS7_PKcSB_EEEDpT_+0xec>
1000032cc: 68 5e c0 39 	ldrsb	w8, [x19, #23]
1000032d0: 68 02 f8 37 	tbnz	w8, #31, 0x10000331c <__ZN9sequences21stored_array_sequenceINSt3__112basic_stringIcNS1_11char_traitsIcEENS1_9allocatorIcEEEELi3EEC2IJS7_PKcSB_EEEDpT_+0xfc>
1000032d4: e0 03 14 aa 	mov	x0, x20
1000032d8: 4c 01 00 94 	bl	0x100003808 <_strlen+0x100003808>
1000032dc: e0 07 40 f9 	ldr	x0, [sp, #8]
1000032e0: 83 01 00 94 	bl	0x1000038ec <_strlen+0x1000038ec>
1000032e4: 68 1e c1 39 	ldrsb	w8, [x19, #71]
1000032e8: e8 fe ff 36 	tbz	w8, #31, 0x1000032c4 <__ZN9sequences21stored_array_sequenceINSt3__112basic_stringIcNS1_11char_traitsIcEENS1_9allocatorIcEEEELi3EEC2IJS7_PKcSB_EEEDpT_+0xa4>
1000032ec: 04 00 00 14 	b	0x1000032fc <__ZN9sequences21stored_array_sequenceINSt3__112basic_stringIcNS1_11char_traitsIcEENS1_9allocatorIcEEEELi3EEC2IJS7_PKcSB_EEEDpT_+0xdc>
1000032f0: f4 03 00 aa 	mov	x20, x0
1000032f4: 68 1e c1 39 	ldrsb	w8, [x19, #71]
1000032f8: 68 fe ff 36 	tbz	w8, #31, 0x1000032c4 <__ZN9sequences21stored_array_sequenceINSt3__112basic_stringIcNS1_11char_traitsIcEENS1_9allocatorIcEEEELi3EEC2IJS7_PKcSB_EEEDpT_+0xa4>
1000032fc: 60 1a 40 f9 	ldr	x0, [x19, #48]
100003300: 7b 01 00 94 	bl	0x1000038ec <_strlen+0x1000038ec>
100003304: 68 be c0 39 	ldrsb	w8, [x19, #47]
100003308: 28 fe ff 36 	tbz	w8, #31, 0x1000032cc <__ZN9sequences21stored_array_sequenceINSt3__112basic_stringIcNS1_11char_traitsIcEENS1_9allocatorIcEEEELi3EEC2IJS7_PKcSB_EEEDpT_+0xac>
10000330c: 60 0e 40 f9 	ldr	x0, [x19, #24]
100003310: 77 01 00 94 	bl	0x1000038ec <_strlen+0x1000038ec>
100003314: 68 5e c0 39 	ldrsb	w8, [x19, #23]
100003318: e8 fd ff 36 	tbz	w8, #31, 0x1000032d4 <__ZN9sequences21stored_array_sequenceINSt3__112basic_stringIcNS1_11char_traitsIcEENS1_9allocatorIcEEEELi3EEC2IJS7_PKcSB_EEEDpT_+0xb4>
10000331c: 60 02 40 f9 	ldr	x0, [x19]
100003320: 73 01 00 94 	bl	0x1000038ec <_strlen+0x1000038ec>
100003324: e0 03 14 aa 	mov	x0, x20
100003328: 38 01 00 94 	bl	0x100003808 <_strlen+0x100003808>

000000010000332c <__ZN9sequences21stored_array_sequenceINSt3__112basic_stringIcNS1_11char_traitsIcEENS1_9allocatorIcEEEELi3EE4initIJPKcSB_EEEviS7_DpT_>:
10000332c: ff c3 01 d1 	sub	sp, sp, #112
100003330: fa 67 02 a9 	stp	x26, x25, [sp, #32]
100003334: f8 5f 03 a9 	stp	x24, x23, [sp, #48]
100003338: f6 57 04 a9 	stp	x22, x21, [sp, #64]
10000333c: f4 4f 05 a9 	stp	x20, x19, [sp, #80]
100003340: fd 7b 06 a9 	stp	x29, x30, [sp, #96]
100003344: fd 83 01 91 	add	x29, sp, #96
100003348: f3 03 04 aa 	mov	x19, x4
10000334c: f5 03 03 aa 	mov	x21, x3
100003350: f6 03 01 aa 	mov	x22, x1
100003354: f4 03 00 aa 	mov	x20, x0
100003358: 08 03 80 52 	mov	w8, #24
10000335c: 20 00 28 9b 	smaddl	x0, w1, w8, x0
100003360: e1 03 02 aa 	mov	x1, x2
100003364: 3e 01 00 94 	bl	0x10000385c <_strlen+0x10000385c>
100003368: e0 03 15 aa 	mov	x0, x21
10000336c: 7e 01 00 94 	bl	0x100003964 <_strlen+0x100003964>
100003370: 1f 40 00 b1 	cmn	x0, #16
100003374: c2 04 00 54 	b.hs	0x10000340c <__ZN9sequences21stored_array_sequenceINSt3__112basic_stringIcNS1_11char_traitsIcEENS1_9allocatorIcEEEELi3EE4initIJPKcSB_EEEviS7_DpT_+0xe0>
100003378: f7 03 00 aa 	mov	x23, x0
10000337c: d6 06 00 11 	add	w22, w22, #1
100003380: 1f 5c 00 f1 	cmp	x0, #23
100003384: a2 00 00 54 	b.hs	0x100003398 <__ZN9sequences21stored_array_sequenceINSt3__112basic_stringIcNS1_11char_traitsIcEENS1_9allocatorIcEEEELi3EE4initIJPKcSB_EEEviS7_DpT_+0x6c>
100003388: f7 7f 00 39 	strb	w23, [sp, #31]
10000338c: f8 23 00 91 	add	x24, sp, #8
100003390: 57 01 00 b5 	cbnz	x23, 0x1000033b8 <__ZN9sequences21stored_array_sequenceINSt3__112basic_stringIcNS1_11char_traitsIcEENS1_9allocatorIcEEEELi3EE4initIJPKcSB_EEEviS7_DpT_+0x8c>
100003394: 0d 00 00 14 	b	0x1000033c8 <__ZN9sequences21stored_array_sequenceINSt3__112basic_stringIcNS1_11char_traitsIcEENS1_9allocatorIcEEEELi3EE4initIJPKcSB_EEEviS7_DpT_+0x9c>
100003398: e8 42 00 91 	add	x8, x23, #16
10000339c: 19 ed 7c 92 	and	x25, x8, #0xfffffffffffffff0
1000033a0: e0 03 19 aa 	mov	x0, x25
1000033a4: 55 01 00 94 	bl	0x1000038f8 <_strlen+0x1000038f8>
1000033a8: f8 03 00 aa 	mov	x24, x0
1000033ac: 28 03 41 b2 	orr	x8, x25, #0x8000000000000000
1000033b0: f7 23 01 a9 	stp	x23, x8, [sp, #16]
1000033b4: e0 07 00 f9 	str	x0, [sp, #8]
1000033b8: e0 03 18 aa 	mov	x0, x24
1000033bc: e1 03 15 aa 	mov	x1, x21
1000033c0: e2 03 17 aa 	mov	x2, x23
1000033c4: 62 01 00 94 	bl	0x10000394c <_strlen+0x10000394c>
1000033c8: 1f 6b 37 38 	strb	wzr, [x24, x23]
1000033cc: e2 23 00 91 	add	x2, sp, #8
1000033d0: e0 03 14 aa 	mov	x0, x20
1000033d4: e1 03 16 aa 	mov	x1, x22
1000033d8: e3 03 13 aa 	mov	x3, x19
1000033dc: 15 00 00 94 	bl	0x100003430 <__ZN9sequences21stored_array_sequenceINSt3__112basic_stringIcNS1_11char_traitsIcEENS1_9allocatorIcEEEELi3EE4initIJPKcEEEviS7_DpT_>
1000033e0: e8 7f c0 39 	ldrsb	w8, [sp, #31]
1000033e4: 68 00 f8 36 	tbz	w8, #31, 0x1000033f0 <__ZN9sequences21stored_array_sequenceINSt3__112basic_stringIcNS1_11char_traitsIcEENS1_9allocatorIcEEEELi3EE4initIJPKcSB_EEEviS7_DpT_+0xc4>
1000033e8: e0 07 40 f9 	ldr	x0, [sp, #8]
1000033ec: 40 01 00 94 	bl	0x1000038ec <_strlen+0x1000038ec>
1000033f0: fd 7b 46 a9 	ldp	x29, x30, [sp, #96]
1000033f4: f4 4f 45 a9 	ldp	x20, x19, [sp, #80]
1000033f8: f6 57 44 a9 	ldp	x22, x21, [sp, #64]
1000033fc: f8 5f 43 a9 	ldp	x24, x23, [sp, #48]
100003400: fa 67 42 a9 	ldp	x26, x25, [sp, #32]
100003404: ff c3 01 91 	add	sp, sp, #112
100003408: c0 03 5f d6 	ret
10000340c: e0 23 00 91 	add	x0, sp, #8
100003410: 59 ff ff 97 	bl	0x100003174 <__ZNKSt3__112basic_stringIcNS_11char_traitsIcEENS_9allocatorIcEEE20__throw_length_errorEv>
100003414: f3 03 00 aa 	mov	x19, x0
100003418: e8 7f c0 39 	ldrsb	w8, [sp, #31]
10000341c: 68 00 f8 36 	tbz	w8, #31, 0x100003428 <__ZN9sequences21stored_array_sequenceINSt3__112basic_stringIcNS1_11char_traitsIcEENS1_9allocatorIcEEEELi3EE4initIJPKcSB_EEEviS7_DpT_+0xfc>
100003420: e0 07 40 f9 	ldr	x0, [sp, #8]
100003424: 32 01 00 94 	bl	0x1000038ec <_strlen+0x1000038ec>
100003428: e0 03 13 aa 	mov	x0, x19
10000342c: f7 00 00 94 	bl	0x100003808 <_strlen+0x100003808>

0000000100003430 <__ZN9sequences21stored_array_sequenceINSt3__112basic_stringIcNS1_11char_traitsIcEENS1_9allocatorIcEEEELi3EE4initIJPKcEEEviS7_DpT_>:
100003430: ff 83 01 d1 	sub	sp, sp, #96
100003434: f8 5f 02 a9 	stp	x24, x23, [sp, #32]
100003438: f6 57 03 a9 	stp	x22, x21, [sp, #48]
10000343c: f4 4f 04 a9 	stp	x20, x19, [sp, #64]
100003440: fd 7b 05 a9 	stp	x29, x30, [sp, #80]
100003444: fd 43 01 91 	add	x29, sp, #80
100003448: f4 03 03 aa 	mov	x20, x3
10000344c: f6 03 01 aa 	mov	x22, x1
100003450: f3 03 00 aa 	mov	x19, x0
100003454: 08 03 80 52 	mov	w8, #24
100003458: 20 00 28 9b 	smaddl	x0, w1, w8, x0
10000345c: e1 03 02 aa 	mov	x1, x2
100003460: ff 00 00 94 	bl	0x10000385c <_strlen+0x10000385c>
100003464: e0 03 14 aa 	mov	x0, x20
100003468: 3f 01 00 94 	bl	0x100003964 <_strlen+0x100003964>
10000346c: 1f 40 00 b1 	cmn	x0, #16
100003470: 62 05 00 54 	b.hs	0x10000351c <__ZN9sequences21stored_array_sequenceINSt3__112basic_stringIcNS1_11char_traitsIcEENS1_9allocatorIcEEEELi3EE4initIJPKcEEEviS7_DpT_+0xec>
100003474: f5 03 00 aa 	mov	x21, x0
100003478: c8 7e 40 93 	sxtw	x8, w22
10000347c: 18 05 00 91 	add	x24, x8, #1
100003480: 1f 5c 00 f1 	cmp	x0, #23
100003484: a2 00 00 54 	b.hs	0x100003498 <__ZN9sequences21stored_array_sequenceINSt3__112basic_stringIcNS1_11char_traitsIcEENS1_9allocatorIcEEEELi3EE4initIJPKcEEEviS7_DpT_+0x68>
100003488: f5 7f 00 39 	strb	w21, [sp, #31]
10000348c: f6 23 00 91 	add	x22, sp, #8
100003490: 55 01 00 b5 	cbnz	x21, 0x1000034b8 <__ZN9sequences21stored_array_sequenceINSt3__112basic_stringIcNS1_11char_traitsIcEENS1_9allocatorIcEEEELi3EE4initIJPKcEEEviS7_DpT_+0x88>
100003494: 0d 00 00 14 	b	0x1000034c8 <__ZN9sequences21stored_array_sequenceINSt3__112basic_stringIcNS1_11char_traitsIcEENS1_9allocatorIcEEEELi3EE4initIJPKcEEEviS7_DpT_+0x98>
100003498: a8 42 00 91 	add	x8, x21, #16
10000349c: 17 ed 7c 92 	and	x23, x8, #0xfffffffffffffff0
1000034a0: e0 03 17 aa 	mov	x0, x23
1000034a4: 15 01 00 94 	bl	0x1000038f8 <_strlen+0x1000038f8>
1000034a8: f6 03 00 aa 	mov	x22, x0
1000034ac: e8 02 41 b2 	orr	x8, x23, #0x8000000000000000
1000034b0: f5 23 01 a9 	stp	x21, x8, [sp, #16]
1000034b4: e0 07 00 f9 	str	x0, [sp, #8]
1000034b8: e0 03 16 aa 	mov	x0, x22
1000034bc: e1 03 14 aa 	mov	x1, x20
1000034c0: e2 03 15 aa 	mov	x2, x21
1000034c4: 22 01 00 94 	bl	0x10000394c <_strlen+0x10000394c>
1000034c8: df 6a 35 38 	strb	wzr, [x22, x21]
1000034cc: 08 03 80 52 	mov	w8, #24
1000034d0: 00 4f 08 9b 	madd	x0, x24, x8, x19
1000034d4: e1 23 00 91 	add	x1, sp, #8
1000034d8: e1 00 00 94 	bl	0x10000385c <_strlen+0x10000385c>
1000034dc: e8 7f c0 39 	ldrsb	w8, [sp, #31]
1000034e0: e8 00 f8 37 	tbnz	w8, #31, 0x1000034fc <__ZN9sequences21stored_array_sequenceINSt3__112basic_stringIcNS1_11char_traitsIcEENS1_9allocatorIcEEEELi3EE4initIJPKcEEEviS7_DpT_+0xcc>
1000034e4: fd 7b 45 a9 	ldp	x29, x30, [sp, #80]
1000034e8: f4 4f 44 a9 	ldp	x20, x19, [sp, #64]
1000034ec: f6 57 43 a9 	ldp	x22, x21, [sp, #48]
1000034f0: f8 5f 42 a9 	ldp	x24, x23, [sp, #32]
1000034f4: ff 83 01 91 	add	sp, sp, #96
1000034f8: c0 03 5f d6 	ret
1000034fc: e0 07 40 f9 	ldr	x0, [sp, #8]
100003500: fb 00 00 94 	bl	0x1000038ec <_strlen+0x1000038ec>
100003504: fd 7b 45 a9 	ldp	x29, x30, [sp, #80]
100003508: f4 4f 44 a9 	ldp	x20, x19, [sp, #64]
10000350c: f6 57 43 a9 	ldp	x22, x21, [sp, #48]
100003510: f8 5f 42 a9 	ldp	x24, x23, [sp, #32]
100003514: ff 83 01 91 	add	sp, sp, #96
100003518: c0 03 5f d6 	ret
10000351c: e0 23 00 91 	add	x0, sp, #8
100003520: 15 ff ff 97 	bl	0x100003174 <__ZNKSt3__112basic_stringIcNS_11char_traitsIcEENS_9allocatorIcEEE20__throw_length_errorEv>
100003524: f3 03 00 aa 	mov	x19, x0
100003528: e8 7f c0 39 	ldrsb	w8, [sp, #31]
10000352c: 68 00 f8 36 	tbz	w8, #31, 0x100003538 <__ZN9sequences21stored_array_sequenceINSt3__112basic_stringIcNS1_11char_traitsIcEENS1_9allocatorIcEEEELi3EE4initIJPKcEEEviS7_DpT_+0x108>
100003530: e0 07 40 f9 	ldr	x0, [sp, #8]
100003534: ee 00 00 94 	bl	0x1000038ec <_strlen+0x1000038ec>
100003538: e0 03 13 aa 	mov	x0, x19
10000353c: b3 00 00 94 	bl	0x100003808 <_strlen+0x100003808>

0000000100003540 <__ZNK9sequences13base_sequenceINSt3__112basic_stringIcNS1_11char_traitsIcEENS1_9allocatorIcEEEENS_21stored_array_sequenceIS7_Li3EEEE12make_virtualEv>:
100003540: ff 43 02 d1 	sub	sp, sp, #144
100003544: f8 5f 05 a9 	stp	x24, x23, [sp, #80]
100003548: f6 57 06 a9 	stp	x22, x21, [sp, #96]
10000354c: f4 4f 07 a9 	stp	x20, x19, [sp, #112]
100003550: fd 7b 08 a9 	stp	x29, x30, [sp, #128]
100003554: fd 03 02 91 	add	x29, sp, #128
100003558: f5 03 00 aa 	mov	x21, x0
10000355c: f3 03 08 aa 	mov	x19, x8
100003560: f7 03 00 91 	mov	x23, sp
100003564: e0 03 00 91 	mov	x0, sp
100003568: e1 03 15 aa 	mov	x1, x21
10000356c: b9 00 00 94 	bl	0x100003850 <_strlen+0x100003850>
100003570: f6 62 00 91 	add	x22, x23, #24
100003574: a1 62 00 91 	add	x1, x21, #24
100003578: f4 03 16 aa 	mov	x20, x22
10000357c: e0 03 16 aa 	mov	x0, x22
100003580: b4 00 00 94 	bl	0x100003850 <_strlen+0x100003850>
100003584: f4 c2 00 91 	add	x20, x23, #48
100003588: a1 c2 00 91 	add	x1, x21, #48
10000358c: e0 03 14 aa 	mov	x0, x20
100003590: b0 00 00 94 	bl	0x100003850 <_strlen+0x100003850>
100003594: a8 26 40 f9 	ldr	x8, [x21, #72]
100003598: e8 27 00 f9 	str	x8, [sp, #72]
10000359c: 1f 20 03 d5 	nop
1000035a0: 08 59 00 58 	ldr	x8, 0x1000040c0 <_strlen+0x1000040c0>
1000035a4: 08 41 00 91 	add	x8, x8, #16
1000035a8: f5 03 13 aa 	mov	x21, x19
1000035ac: a8 86 00 f8 	str	x8, [x21], #8
1000035b0: e1 03 00 91 	mov	x1, sp
1000035b4: e0 03 15 aa 	mov	x0, x21
1000035b8: a6 00 00 94 	bl	0x100003850 <_strlen+0x100003850>
1000035bc: 77 82 00 91 	add	x23, x19, #32
1000035c0: e0 03 17 aa 	mov	x0, x23
1000035c4: e1 03 16 aa 	mov	x1, x22
1000035c8: a2 00 00 94 	bl	0x100003850 <_strlen+0x100003850>
1000035cc: 77 e2 00 91 	add	x23, x19, #56
1000035d0: e0 03 17 aa 	mov	x0, x23
1000035d4: e1 03 14 aa 	mov	x1, x20
1000035d8: 9e 00 00 94 	bl	0x100003850 <_strlen+0x100003850>
1000035dc: e8 27 40 f9 	ldr	x8, [sp, #72]
1000035e0: 68 2a 00 f9 	str	x8, [x19, #80]
1000035e4: e8 1f c1 39 	ldrsb	w8, [sp, #71]
1000035e8: 68 01 f8 37 	tbnz	w8, #31, 0x100003614 <__ZNK9sequences13base_sequenceINSt3__112basic_stringIcNS1_11char_traitsIcEENS1_9allocatorIcEEEENS_21stored_array_sequenceIS7_Li3EEEE12make_virtualEv+0xd4>
1000035ec: e8 bf c0 39 	ldrsb	w8, [sp, #47]
1000035f0: a8 01 f8 37 	tbnz	w8, #31, 0x100003624 <__ZNK9sequences13base_sequenceINSt3__112basic_stringIcNS1_11char_traitsIcEENS1_9allocatorIcEEEENS_21stored_array_sequenceIS7_Li3EEEE12make_virtualEv+0xe4>
1000035f4: e8 5f c0 39 	ldrsb	w8, [sp, #23]
1000035f8: e8 01 f8 37 	tbnz	w8, #31, 0x100003634 <__ZNK9sequences13base_sequenceINSt3__112basic_stringIcNS1_11char_traitsIcEENS1_9allocatorIcEEEENS_21stored_array_sequenceIS7_Li3EEEE12make_virtualEv+0xf4>
1000035fc: fd 7b 48 a9 	ldp	x29, x30, [sp, #128]
100003600: f4 4f 47 a9 	ldp	x20, x19, [sp, #112]
100003604: f6 57 46 a9 	ldp	x22, x21, [sp, #96]
100003608: f8 5f 45 a9 	ldp	x24, x23, [sp, #80]
10000360c: ff 43 02 91 	add	sp, sp, #144
100003610: c0 03 5f d6 	ret
100003614: e0 1b 40 f9 	ldr	x0, [sp, #48]
100003618: b5 00 00 94 	bl	0x1000038ec <_strlen+0x1000038ec>
10000361c: e8 bf c0 39 	ldrsb	w8, [sp, #47]
100003620: a8 fe ff 36 	tbz	w8, #31, 0x1000035f4 <__ZNK9sequences13base_sequenceINSt3__112basic_stringIcNS1_11char_traitsIcEENS1_9allocatorIcEEEENS_21stored_array_sequenceIS7_Li3EEEE12make_virtualEv+0xb4>
100003624: e0 0f 40 f9 	ldr	x0, [sp, #24]
100003628: b1 00 00 94 	bl	0x1000038ec <_strlen+0x1000038ec>
10000362c: e8 5f c0 39 	ldrsb	w8, [sp, #23]
100003630: 68 fe ff 36 	tbz	w8, #31, 0x1000035fc <__ZNK9sequences13base_sequenceINSt3__112basic_stringIcNS1_11char_traitsIcEENS1_9allocatorIcEEEENS_21stored_array_sequenceIS7_Li3EEEE12make_virtualEv+0xbc>
100003634: e0 03 40 f9 	ldr	x0, [sp]
100003638: ad 00 00 94 	bl	0x1000038ec <_strlen+0x1000038ec>
10000363c: fd 7b 48 a9 	ldp	x29, x30, [sp, #128]
100003640: f4 4f 47 a9 	ldp	x20, x19, [sp, #112]
100003644: f6 57 46 a9 	ldp	x22, x21, [sp, #96]
100003648: f8 5f 45 a9 	ldp	x24, x23, [sp, #80]
10000364c: ff 43 02 91 	add	sp, sp, #144
100003650: c0 03 5f d6 	ret
100003654: f3 03 00 aa 	mov	x19, x0
100003658: e8 1f c1 39 	ldrsb	w8, [sp, #71]
10000365c: c8 00 f8 37 	tbnz	w8, #31, 0x100003674 <__ZNK9sequences13base_sequenceINSt3__112basic_stringIcNS1_11char_traitsIcEENS1_9allocatorIcEEEENS_21stored_array_sequenceIS7_Li3EEEE12make_virtualEv+0x134>
100003660: e8 bf c0 39 	ldrsb	w8, [sp, #47]
100003664: 08 01 f8 37 	tbnz	w8, #31, 0x100003684 <__ZNK9sequences13base_sequenceINSt3__112basic_stringIcNS1_11char_traitsIcEENS1_9allocatorIcEEEENS_21stored_array_sequenceIS7_Li3EEEE12make_virtualEv+0x144>
100003668: e8 5f c0 39 	ldrsb	w8, [sp, #23]
10000366c: 48 01 f8 37 	tbnz	w8, #31, 0x100003694 <__ZNK9sequences13base_sequenceINSt3__112basic_stringIcNS1_11char_traitsIcEENS1_9allocatorIcEEEENS_21stored_array_sequenceIS7_Li3EEEE12make_virtualEv+0x154>
100003670: 23 00 00 14 	b	0x1000036fc <__ZNK9sequences13base_sequenceINSt3__112basic_stringIcNS1_11char_traitsIcEENS1_9allocatorIcEEEENS_21stored_array_sequenceIS7_Li3EEEE12make_virtualEv+0x1bc>
100003674: e0 1b 40 f9 	ldr	x0, [sp, #48]
100003678: 9d 00 00 94 	bl	0x1000038ec <_strlen+0x1000038ec>
10000367c: e8 bf c0 39 	ldrsb	w8, [sp, #47]
100003680: 48 ff ff 36 	tbz	w8, #31, 0x100003668 <__ZNK9sequences13base_sequenceINSt3__112basic_stringIcNS1_11char_traitsIcEENS1_9allocatorIcEEEENS_21stored_array_sequenceIS7_Li3EEEE12make_virtualEv+0x128>
100003684: e0 0f 40 f9 	ldr	x0, [sp, #24]
100003688: 99 00 00 94 	bl	0x1000038ec <_strlen+0x1000038ec>
10000368c: e8 5f c0 39 	ldrsb	w8, [sp, #23]
100003690: 68 03 f8 36 	tbz	w8, #31, 0x1000036fc <__ZNK9sequences13base_sequenceINSt3__112basic_stringIcNS1_11char_traitsIcEENS1_9allocatorIcEEEENS_21stored_array_sequenceIS7_Li3EEEE12make_virtualEv+0x1bc>
100003694: e0 03 40 f9 	ldr	x0, [sp]
100003698: 95 00 00 94 	bl	0x1000038ec <_strlen+0x1000038ec>
10000369c: e0 03 13 aa 	mov	x0, x19
1000036a0: 5a 00 00 94 	bl	0x100003808 <_strlen+0x100003808>
1000036a4: f3 03 00 aa 	mov	x19, x0
1000036a8: 04 00 00 14 	b	0x1000036b8 <__ZNK9sequences13base_sequenceINSt3__112basic_stringIcNS1_11char_traitsIcEENS1_9allocatorIcEEEENS_21stored_array_sequenceIS7_Li3EEEE12make_virtualEv+0x178>
1000036ac: f7 03 14 aa 	mov	x23, x20
1000036b0: 9f 02 15 eb 	cmp	x20, x21
1000036b4: 20 fd ff 54 	b.eq	0x100003658 <__ZNK9sequences13base_sequenceINSt3__112basic_stringIcNS1_11char_traitsIcEENS1_9allocatorIcEEEENS_21stored_array_sequenceIS7_Li3EEEE12make_virtualEv+0x118>
1000036b8: f4 62 00 d1 	sub	x20, x23, #24
1000036bc: e8 f2 df 38 	ldursb	w8, [x23, #-1]
1000036c0: 68 ff ff 36 	tbz	w8, #31, 0x1000036ac <__ZNK9sequences13base_sequenceINSt3__112basic_stringIcNS1_11char_traitsIcEENS1_9allocatorIcEEEENS_21stored_array_sequenceIS7_Li3EEEE12make_virtualEv+0x16c>
1000036c4: e0 82 5e f8 	ldur	x0, [x23, #-24]
1000036c8: 89 00 00 94 	bl	0x1000038ec <_strlen+0x1000038ec>
1000036cc: f8 ff ff 17 	b	0x1000036ac <__ZNK9sequences13base_sequenceINSt3__112basic_stringIcNS1_11char_traitsIcEENS1_9allocatorIcEEEENS_21stored_array_sequenceIS7_Li3EEEE12make_virtualEv+0x16c>
1000036d0: f3 03 00 aa 	mov	x19, x0
1000036d4: 04 00 00 14 	b	0x1000036e4 <__ZNK9sequences13base_sequenceINSt3__112basic_stringIcNS1_11char_traitsIcEENS1_9allocatorIcEEEENS_21stored_array_sequenceIS7_Li3EEEE12make_virtualEv+0x1a4>
1000036d8: f4 03 15 aa 	mov	x20, x21
1000036dc: bf 02 17 eb 	cmp	x21, x23
1000036e0: e0 00 00 54 	b.eq	0x1000036fc <__ZNK9sequences13base_sequenceINSt3__112basic_stringIcNS1_11char_traitsIcEENS1_9allocatorIcEEEENS_21stored_array_sequenceIS7_Li3EEEE12make_virtualEv+0x1bc>
1000036e4: 95 62 00 d1 	sub	x21, x20, #24
1000036e8: 88 f2 df 38 	ldursb	w8, [x20, #-1]
1000036ec: 68 ff ff 36 	tbz	w8, #31, 0x1000036d8 <__ZNK9sequences13base_sequenceINSt3__112basic_stringIcNS1_11char_traitsIcEENS1_9allocatorIcEEEENS_21stored_array_sequenceIS7_Li3EEEE12make_virtualEv+0x198>
1000036f0: 80 82 5e f8 	ldur	x0, [x20, #-24]
1000036f4: 7e 00 00 94 	bl	0x1000038ec <_strlen+0x1000038ec>
1000036f8: f8 ff ff 17 	b	0x1000036d8 <__ZNK9sequences13base_sequenceINSt3__112basic_stringIcNS1_11char_traitsIcEENS1_9allocatorIcEEEENS_21stored_array_sequenceIS7_Li3EEEE12make_virtualEv+0x198>
1000036fc: e0 03 13 aa 	mov	x0, x19
100003700: 42 00 00 94 	bl	0x100003808 <_strlen+0x100003808>

0000000100003704 <__ZNKSt3__113__vector_baseIiNS_9allocatorIiEEE20__throw_length_errorEv>:
100003704: fd 7b bf a9 	stp	x29, x30, [sp, #-16]!
100003708: fd 03 00 91 	mov	x29, sp
10000370c: 42 00 00 94 	bl	0x100003814 <_strlen+0x100003814>

0000000100003710 <__Z7test_eqRK8sequenceIiES2_.cold.1>:
100003710: fd 7b bf a9 	stp	x29, x30, [sp, #-16]!
100003714: fd 03 00 91 	mov	x29, sp
100003718: 60 34 00 10 	adr	x0, #1676
10000371c: 1f 20 03 d5 	nop
100003720: 61 34 00 10 	adr	x1, #1676
100003724: 1f 20 03 d5 	nop
100003728: a3 34 00 50 	adr	x3, #1686
10000372c: 1f 20 03 d5 	nop
100003730: a2 01 80 52 	mov	w2, #13
100003734: 74 00 00 94 	bl	0x100003904 <_strlen+0x100003904>

0000000100003738 <_main.cold.1>:
100003738: fd 7b bf a9 	stp	x29, x30, [sp, #-16]!
10000373c: fd 03 00 91 	mov	x29, sp
100003740: c0 34 00 10 	adr	x0, #1688
100003744: 1f 20 03 d5 	nop
100003748: 21 33 00 10 	adr	x1, #1636
10000374c: 1f 20 03 d5 	nop
100003750: 03 36 00 70 	adr	x3, #1731
100003754: 1f 20 03 d5 	nop
100003758: 22 08 80 52 	mov	w2, #65
10000375c: 6a 00 00 94 	bl	0x100003904 <_strlen+0x100003904>

0000000100003760 <_main.cold.2>:
100003760: fd 7b bf a9 	stp	x29, x30, [sp, #-16]!
100003764: fd 03 00 91 	mov	x29, sp
100003768: e0 31 00 10 	adr	x0, #1596
10000376c: 1f 20 03 d5 	nop
100003770: e1 31 00 10 	adr	x1, #1596
100003774: 1f 20 03 d5 	nop
100003778: 23 32 00 50 	adr	x3, #1606
10000377c: 1f 20 03 d5 	nop
100003780: a2 01 80 52 	mov	w2, #13
100003784: 60 00 00 94 	bl	0x100003904 <_strlen+0x100003904>

0000000100003788 <_main.cold.3>:
100003788: f6 57 bd a9 	stp	x22, x21, [sp, #-48]!
10000378c: f4 4f 01 a9 	stp	x20, x19, [sp, #16]
100003790: fd 7b 02 a9 	stp	x29, x30, [sp, #32]
100003794: fd 83 00 91 	add	x29, sp, #32
100003798: f3 03 03 aa 	mov	x19, x3
10000379c: f4 03 02 aa 	mov	x20, x2
1000037a0: f5 03 01 aa 	mov	x21, x1
1000037a4: f6 03 00 aa 	mov	x22, x0
1000037a8: 08 bc c0 39 	ldrsb	w8, [x0, #47]
1000037ac: 68 00 f8 36 	tbz	w8, #31, 0x1000037b8 <_main.cold.3+0x30>
1000037b0: c0 0e 40 f9 	ldr	x0, [x22, #24]
1000037b4: 4e 00 00 94 	bl	0x1000038ec <_strlen+0x1000038ec>
1000037b8: c8 5e c0 39 	ldrsb	w8, [x22, #23]
1000037bc: 68 00 f8 36 	tbz	w8, #31, 0x1000037c8 <_main.cold.3+0x40>
1000037c0: c0 02 40 f9 	ldr	x0, [x22]
1000037c4: 4a 00 00 94 	bl	0x1000038ec <_strlen+0x1000038ec>
1000037c8: 75 02 00 f9 	str	x21, [x19]
1000037cc: 74 0a 00 b9 	str	w20, [x19, #8]
1000037d0: fd 7b 42 a9 	ldp	x29, x30, [sp, #32]
1000037d4: f4 4f 41 a9 	ldp	x20, x19, [sp, #16]
1000037d8: f6 57 c3 a8 	ldp	x22, x21, [sp], #48
1000037dc: c0 03 5f d6 	ret

00000001000037e0 <_main.cold.4>:
1000037e0: fd 7b bf a9 	stp	x29, x30, [sp, #-16]!
1000037e4: fd 03 00 91 	mov	x29, sp
1000037e8: 80 2f 00 10 	adr	x0, #1520
1000037ec: 1f 20 03 d5 	nop
1000037f0: e1 2d 00 10 	adr	x1, #1468
1000037f4: 1f 20 03 d5 	nop
1000037f8: 23 2f 00 30 	adr	x3, #1509
1000037fc: 1f 20 03 d5 	nop
100003800: 42 07 80 52 	mov	w2, #58
100003804: 40 00 00 94 	bl	0x100003904 <_strlen+0x100003904>

Disassembly of section __TEXT,__stubs:

0000000100003808 <__stubs>:
100003808: 10 00 00 b0 	adrp	x16, 0x100004000 <__stubs+0x4>
10000380c: 10 02 40 f9 	ldr	x16, [x16]
100003810: 00 02 1f d6 	br	x16
100003814: 10 00 00 b0 	adrp	x16, 0x100004000 <__stubs+0x10>
100003818: 10 06 40 f9 	ldr	x16, [x16, #8]
10000381c: 00 02 1f d6 	br	x16
100003820: 10 00 00 b0 	adrp	x16, 0x100004000 <__stubs+0x1c>
100003824: 10 0a 40 f9 	ldr	x16, [x16, #16]
100003828: 00 02 1f d6 	br	x16
10000382c: 10 00 00 b0 	adrp	x16, 0x100004000 <__stubs+0x28>
100003830: 10 0e 40 f9 	ldr	x16, [x16, #24]
100003834: 00 02 1f d6 	br	x16
100003838: 10 00 00 b0 	adrp	x16, 0x100004000 <__stubs+0x34>
10000383c: 10 12 40 f9 	ldr	x16, [x16, #32]
100003840: 00 02 1f d6 	br	x16
100003844: 10 00 00 b0 	adrp	x16, 0x100004000 <__stubs+0x40>
100003848: 10 16 40 f9 	ldr	x16, [x16, #40]
10000384c: 00 02 1f d6 	br	x16
100003850: 10 00 00 b0 	adrp	x16, 0x100004000 <__stubs+0x4c>
100003854: 10 1e 40 f9 	ldr	x16, [x16, #56]
100003858: 00 02 1f d6 	br	x16
10000385c: 10 00 00 b0 	adrp	x16, 0x100004000 <__stubs+0x58>
100003860: 10 22 40 f9 	ldr	x16, [x16, #64]
100003864: 00 02 1f d6 	br	x16
100003868: 10 00 00 b0 	adrp	x16, 0x100004000 <__stubs+0x64>
10000386c: 10 26 40 f9 	ldr	x16, [x16, #72]
100003870: 00 02 1f d6 	br	x16
100003874: 10 00 00 b0 	adrp	x16, 0x100004000 <__stubs+0x70>
100003878: 10 2a 40 f9 	ldr	x16, [x16, #80]
10000387c: 00 02 1f d6 	br	x16
100003880: 10 00 00 b0 	adrp	x16, 0x100004000 <__stubs+0x7c>
100003884: 10 2e 40 f9 	ldr	x16, [x16, #88]
100003888: 00 02 1f d6 	br	x16
10000388c: 10 00 00 b0 	adrp	x16, 0x100004000 <__stubs+0x88>
100003890: 10 32 40 f9 	ldr	x16, [x16, #96]
100003894: 00 02 1f d6 	br	x16
100003898: 10 00 00 b0 	adrp	x16, 0x100004000 <__stubs+0x94>
10000389c: 10 36 40 f9 	ldr	x16, [x16, #104]
1000038a0: 00 02 1f d6 	br	x16
1000038a4: 10 00 00 b0 	adrp	x16, 0x100004000 <__stubs+0xa0>
1000038a8: 10 3a 40 f9 	ldr	x16, [x16, #112]
1000038ac: 00 02 1f d6 	br	x16
1000038b0: 10 00 00 b0 	adrp	x16, 0x100004000 <__stubs+0xac>
1000038b4: 10 46 40 f9 	ldr	x16, [x16, #136]
1000038b8: 00 02 1f d6 	br	x16
1000038bc: 10 00 00 b0 	adrp	x16, 0x100004000 <__stubs+0xb8>
1000038c0: 10 4a 40 f9 	ldr	x16, [x16, #144]
1000038c4: 00 02 1f d6 	br	x16
1000038c8: 10 00 00 b0 	adrp	x16, 0x100004000 <__stubs+0xc4>
1000038cc: 10 4e 40 f9 	ldr	x16, [x16, #152]
1000038d0: 00 02 1f d6 	br	x16
1000038d4: 10 00 00 b0 	adrp	x16, 0x100004000 <__stubs+0xd0>
1000038d8: 10 52 40 f9 	ldr	x16, [x16, #160]
1000038dc: 00 02 1f d6 	br	x16
1000038e0: 10 00 00 b0 	adrp	x16, 0x100004000 <__stubs+0xdc>
1000038e4: 10 56 40 f9 	ldr	x16, [x16, #168]
1000038e8: 00 02 1f d6 	br	x16
1000038ec: 10 00 00 b0 	adrp	x16, 0x100004000 <__stubs+0xe8>
1000038f0: 10 6e 40 f9 	ldr	x16, [x16, #216]
1000038f4: 00 02 1f d6 	br	x16
1000038f8: 10 00 00 b0 	adrp	x16, 0x100004000 <__stubs+0xf4>
1000038fc: 10 72 40 f9 	ldr	x16, [x16, #224]
100003900: 00 02 1f d6 	br	x16
100003904: 10 00 00 b0 	adrp	x16, 0x100004000 <__stubs+0x100>
100003908: 10 76 40 f9 	ldr	x16, [x16, #232]
10000390c: 00 02 1f d6 	br	x16
100003910: 10 00 00 b0 	adrp	x16, 0x100004000 <__stubs+0x10c>
100003914: 10 7a 40 f9 	ldr	x16, [x16, #240]
100003918: 00 02 1f d6 	br	x16
10000391c: 10 00 00 b0 	adrp	x16, 0x100004000 <__stubs+0x118>
100003920: 10 7e 40 f9 	ldr	x16, [x16, #248]
100003924: 00 02 1f d6 	br	x16
100003928: 10 00 00 b0 	adrp	x16, 0x100004000 <__stubs+0x124>
10000392c: 10 82 40 f9 	ldr	x16, [x16, #256]
100003930: 00 02 1f d6 	br	x16
100003934: 10 00 00 b0 	adrp	x16, 0x100004000 <__stubs+0x130>
100003938: 10 86 40 f9 	ldr	x16, [x16, #264]
10000393c: 00 02 1f d6 	br	x16
100003940: 10 00 00 b0 	adrp	x16, 0x100004000 <__stubs+0x13c>
100003944: 10 8a 40 f9 	ldr	x16, [x16, #272]
100003948: 00 02 1f d6 	br	x16
10000394c: 10 00 00 b0 	adrp	x16, 0x100004000 <__stubs+0x148>
100003950: 10 92 40 f9 	ldr	x16, [x16, #288]
100003954: 00 02 1f d6 	br	x16
100003958: 10 00 00 b0 	adrp	x16, 0x100004000 <__stubs+0x154>
10000395c: 10 96 40 f9 	ldr	x16, [x16, #296]
100003960: 00 02 1f d6 	br	x16
100003964: 10 00 00 b0 	adrp	x16, 0x100004000 <__stubs+0x160>
100003968: 10 9a 40 f9 	ldr	x16, [x16, #304]
10000396c: 00 02 1f d6 	br	x16
